
user/_init:     file format elf64-littleriscv


Disassembly of section .text:

0000000000000000 <main>:

char *argv[] = { "sh", 0 };

int
main(void)
{
   0:	1101                	addi	sp,sp,-32
   2:	ec06                	sd	ra,24(sp)
   4:	e822                	sd	s0,16(sp)
   6:	e426                	sd	s1,8(sp)
   8:	e04a                	sd	s2,0(sp)
   a:	1000                	addi	s0,sp,32
  int pid, wpid;

  if(open("console", O_RDWR) < 0){
   c:	4589                	li	a1,2
   e:	00001517          	auipc	a0,0x1
  12:	8d250513          	addi	a0,a0,-1838 # 8e0 <malloc+0xe4>
  16:	352000ef          	jal	ra,368 <open>
  1a:	04054563          	bltz	a0,64 <main+0x64>
    mknod("console", CONSOLE, 0);
    open("console", O_RDWR);
  }
  dup(0);  // stdout
  1e:	4501                	li	a0,0
  20:	380000ef          	jal	ra,3a0 <dup>
  dup(0);  // stderr
  24:	4501                	li	a0,0
  26:	37a000ef          	jal	ra,3a0 <dup>

  for(;;){
    printf("init: starting sh\n");
  2a:	00001917          	auipc	s2,0x1
  2e:	8be90913          	addi	s2,s2,-1858 # 8e8 <malloc+0xec>
  32:	854a                	mv	a0,s2
  34:	70e000ef          	jal	ra,742 <printf>
    pid = fork();
  38:	2e8000ef          	jal	ra,320 <fork>
  3c:	84aa                	mv	s1,a0
    if(pid < 0){
  3e:	04054363          	bltz	a0,84 <main+0x84>
      printf("init: fork failed\n");
      exit(1);
    }
    if(pid == 0){
  42:	c931                	beqz	a0,96 <main+0x96>
    }

    for(;;){
      // this call to wait() returns if the shell exits,
      // or if a parentless process exits.
      wpid = wait((int *) 0);
  44:	4501                	li	a0,0
  46:	2ea000ef          	jal	ra,330 <wait>
      if(wpid == pid){
  4a:	fea484e3          	beq	s1,a0,32 <main+0x32>
        // the shell exited; restart it.
        break;
      } else if(wpid < 0){
  4e:	fe055be3          	bgez	a0,44 <main+0x44>
        printf("init: wait returned an error\n");
  52:	00001517          	auipc	a0,0x1
  56:	8e650513          	addi	a0,a0,-1818 # 938 <malloc+0x13c>
  5a:	6e8000ef          	jal	ra,742 <printf>
        exit(1);
  5e:	4505                	li	a0,1
  60:	2c8000ef          	jal	ra,328 <exit>
    mknod("console", CONSOLE, 0);
  64:	4601                	li	a2,0
  66:	4585                	li	a1,1
  68:	00001517          	auipc	a0,0x1
  6c:	87850513          	addi	a0,a0,-1928 # 8e0 <malloc+0xe4>
  70:	300000ef          	jal	ra,370 <mknod>
    open("console", O_RDWR);
  74:	4589                	li	a1,2
  76:	00001517          	auipc	a0,0x1
  7a:	86a50513          	addi	a0,a0,-1942 # 8e0 <malloc+0xe4>
  7e:	2ea000ef          	jal	ra,368 <open>
  82:	bf71                	j	1e <main+0x1e>
      printf("init: fork failed\n");
  84:	00001517          	auipc	a0,0x1
  88:	87c50513          	addi	a0,a0,-1924 # 900 <malloc+0x104>
  8c:	6b6000ef          	jal	ra,742 <printf>
      exit(1);
  90:	4505                	li	a0,1
  92:	296000ef          	jal	ra,328 <exit>
      exec("sh", argv);
  96:	00001597          	auipc	a1,0x1
  9a:	f6a58593          	addi	a1,a1,-150 # 1000 <argv>
  9e:	00001517          	auipc	a0,0x1
  a2:	87a50513          	addi	a0,a0,-1926 # 918 <malloc+0x11c>
  a6:	2ba000ef          	jal	ra,360 <exec>
      printf("init: exec sh failed\n");
  aa:	00001517          	auipc	a0,0x1
  ae:	87650513          	addi	a0,a0,-1930 # 920 <malloc+0x124>
  b2:	690000ef          	jal	ra,742 <printf>
      exit(1);
  b6:	4505                	li	a0,1
  b8:	270000ef          	jal	ra,328 <exit>

00000000000000bc <start>:
//
// wrapper so that it's OK if main() does not call exit().
//
void
start()
{
  bc:	1141                	addi	sp,sp,-16
  be:	e406                	sd	ra,8(sp)
  c0:	e022                	sd	s0,0(sp)
  c2:	0800                	addi	s0,sp,16
  extern int main();
  main();
  c4:	f3dff0ef          	jal	ra,0 <main>
  exit(0);
  c8:	4501                	li	a0,0
  ca:	25e000ef          	jal	ra,328 <exit>

00000000000000ce <strcpy>:
}

char*
strcpy(char *s, const char *t)
{
  ce:	1141                	addi	sp,sp,-16
  d0:	e422                	sd	s0,8(sp)
  d2:	0800                	addi	s0,sp,16
  char *os;

  os = s;
  while((*s++ = *t++) != 0)
  d4:	87aa                	mv	a5,a0
  d6:	0585                	addi	a1,a1,1
  d8:	0785                	addi	a5,a5,1
  da:	fff5c703          	lbu	a4,-1(a1)
  de:	fee78fa3          	sb	a4,-1(a5)
  e2:	fb75                	bnez	a4,d6 <strcpy+0x8>
    ;
  return os;
}
  e4:	6422                	ld	s0,8(sp)
  e6:	0141                	addi	sp,sp,16
  e8:	8082                	ret

00000000000000ea <strcmp>:

int
strcmp(const char *p, const char *q)
{
  ea:	1141                	addi	sp,sp,-16
  ec:	e422                	sd	s0,8(sp)
  ee:	0800                	addi	s0,sp,16
  while(*p && *p == *q)
  f0:	00054783          	lbu	a5,0(a0)
  f4:	cb91                	beqz	a5,108 <strcmp+0x1e>
  f6:	0005c703          	lbu	a4,0(a1)
  fa:	00f71763          	bne	a4,a5,108 <strcmp+0x1e>
    p++, q++;
  fe:	0505                	addi	a0,a0,1
 100:	0585                	addi	a1,a1,1
  while(*p && *p == *q)
 102:	00054783          	lbu	a5,0(a0)
 106:	fbe5                	bnez	a5,f6 <strcmp+0xc>
  return (uchar)*p - (uchar)*q;
 108:	0005c503          	lbu	a0,0(a1)
}
 10c:	40a7853b          	subw	a0,a5,a0
 110:	6422                	ld	s0,8(sp)
 112:	0141                	addi	sp,sp,16
 114:	8082                	ret

0000000000000116 <strlen>:

uint
strlen(const char *s)
{
 116:	1141                	addi	sp,sp,-16
 118:	e422                	sd	s0,8(sp)
 11a:	0800                	addi	s0,sp,16
  int n;

  for(n = 0; s[n]; n++)
 11c:	00054783          	lbu	a5,0(a0)
 120:	cf91                	beqz	a5,13c <strlen+0x26>
 122:	0505                	addi	a0,a0,1
 124:	87aa                	mv	a5,a0
 126:	4685                	li	a3,1
 128:	9e89                	subw	a3,a3,a0
 12a:	00f6853b          	addw	a0,a3,a5
 12e:	0785                	addi	a5,a5,1
 130:	fff7c703          	lbu	a4,-1(a5)
 134:	fb7d                	bnez	a4,12a <strlen+0x14>
    ;
  return n;
}
 136:	6422                	ld	s0,8(sp)
 138:	0141                	addi	sp,sp,16
 13a:	8082                	ret
  for(n = 0; s[n]; n++)
 13c:	4501                	li	a0,0
 13e:	bfe5                	j	136 <strlen+0x20>

0000000000000140 <memset>:

void*
memset(void *dst, int c, uint n)
{
 140:	1141                	addi	sp,sp,-16
 142:	e422                	sd	s0,8(sp)
 144:	0800                	addi	s0,sp,16
  char *cdst = (char *) dst;
  int i;
  for(i = 0; i < n; i++){
 146:	ca19                	beqz	a2,15c <memset+0x1c>
 148:	87aa                	mv	a5,a0
 14a:	1602                	slli	a2,a2,0x20
 14c:	9201                	srli	a2,a2,0x20
 14e:	00a60733          	add	a4,a2,a0
    cdst[i] = c;
 152:	00b78023          	sb	a1,0(a5)
  for(i = 0; i < n; i++){
 156:	0785                	addi	a5,a5,1
 158:	fee79de3          	bne	a5,a4,152 <memset+0x12>
  }
  return dst;
}
 15c:	6422                	ld	s0,8(sp)
 15e:	0141                	addi	sp,sp,16
 160:	8082                	ret

0000000000000162 <strchr>:

char*
strchr(const char *s, char c)
{
 162:	1141                	addi	sp,sp,-16
 164:	e422                	sd	s0,8(sp)
 166:	0800                	addi	s0,sp,16
  for(; *s; s++)
 168:	00054783          	lbu	a5,0(a0)
 16c:	cb99                	beqz	a5,182 <strchr+0x20>
    if(*s == c)
 16e:	00f58763          	beq	a1,a5,17c <strchr+0x1a>
  for(; *s; s++)
 172:	0505                	addi	a0,a0,1
 174:	00054783          	lbu	a5,0(a0)
 178:	fbfd                	bnez	a5,16e <strchr+0xc>
      return (char*)s;
  return 0;
 17a:	4501                	li	a0,0
}
 17c:	6422                	ld	s0,8(sp)
 17e:	0141                	addi	sp,sp,16
 180:	8082                	ret
  return 0;
 182:	4501                	li	a0,0
 184:	bfe5                	j	17c <strchr+0x1a>

0000000000000186 <gets>:

char*
gets(char *buf, int max)
{
 186:	711d                	addi	sp,sp,-96
 188:	ec86                	sd	ra,88(sp)
 18a:	e8a2                	sd	s0,80(sp)
 18c:	e4a6                	sd	s1,72(sp)
 18e:	e0ca                	sd	s2,64(sp)
 190:	fc4e                	sd	s3,56(sp)
 192:	f852                	sd	s4,48(sp)
 194:	f456                	sd	s5,40(sp)
 196:	f05a                	sd	s6,32(sp)
 198:	ec5e                	sd	s7,24(sp)
 19a:	1080                	addi	s0,sp,96
 19c:	8baa                	mv	s7,a0
 19e:	8a2e                	mv	s4,a1
  int i, cc;
  char c;

  for(i=0; i+1 < max; ){
 1a0:	892a                	mv	s2,a0
 1a2:	4481                	li	s1,0
    cc = read(0, &c, 1);
    if(cc < 1)
      break;
    buf[i++] = c;
    if(c == '\n' || c == '\r')
 1a4:	4aa9                	li	s5,10
 1a6:	4b35                	li	s6,13
  for(i=0; i+1 < max; ){
 1a8:	89a6                	mv	s3,s1
 1aa:	2485                	addiw	s1,s1,1
 1ac:	0344d663          	bge	s1,s4,1d8 <gets+0x52>
    cc = read(0, &c, 1);
 1b0:	4605                	li	a2,1
 1b2:	faf40593          	addi	a1,s0,-81
 1b6:	4501                	li	a0,0
 1b8:	188000ef          	jal	ra,340 <read>
    if(cc < 1)
 1bc:	00a05e63          	blez	a0,1d8 <gets+0x52>
    buf[i++] = c;
 1c0:	faf44783          	lbu	a5,-81(s0)
 1c4:	00f90023          	sb	a5,0(s2)
    if(c == '\n' || c == '\r')
 1c8:	01578763          	beq	a5,s5,1d6 <gets+0x50>
 1cc:	0905                	addi	s2,s2,1
 1ce:	fd679de3          	bne	a5,s6,1a8 <gets+0x22>
  for(i=0; i+1 < max; ){
 1d2:	89a6                	mv	s3,s1
 1d4:	a011                	j	1d8 <gets+0x52>
 1d6:	89a6                	mv	s3,s1
      break;
  }
  buf[i] = '\0';
 1d8:	99de                	add	s3,s3,s7
 1da:	00098023          	sb	zero,0(s3)
  return buf;
}
 1de:	855e                	mv	a0,s7
 1e0:	60e6                	ld	ra,88(sp)
 1e2:	6446                	ld	s0,80(sp)
 1e4:	64a6                	ld	s1,72(sp)
 1e6:	6906                	ld	s2,64(sp)
 1e8:	79e2                	ld	s3,56(sp)
 1ea:	7a42                	ld	s4,48(sp)
 1ec:	7aa2                	ld	s5,40(sp)
 1ee:	7b02                	ld	s6,32(sp)
 1f0:	6be2                	ld	s7,24(sp)
 1f2:	6125                	addi	sp,sp,96
 1f4:	8082                	ret

00000000000001f6 <stat>:

int
stat(const char *n, struct stat *st)
{
 1f6:	1101                	addi	sp,sp,-32
 1f8:	ec06                	sd	ra,24(sp)
 1fa:	e822                	sd	s0,16(sp)
 1fc:	e426                	sd	s1,8(sp)
 1fe:	e04a                	sd	s2,0(sp)
 200:	1000                	addi	s0,sp,32
 202:	892e                	mv	s2,a1
  int fd;
  int r;

  fd = open(n, O_RDONLY);
 204:	4581                	li	a1,0
 206:	162000ef          	jal	ra,368 <open>
  if(fd < 0)
 20a:	02054163          	bltz	a0,22c <stat+0x36>
 20e:	84aa                	mv	s1,a0
    return -1;
  r = fstat(fd, st);
 210:	85ca                	mv	a1,s2
 212:	16e000ef          	jal	ra,380 <fstat>
 216:	892a                	mv	s2,a0
  close(fd);
 218:	8526                	mv	a0,s1
 21a:	136000ef          	jal	ra,350 <close>
  return r;
}
 21e:	854a                	mv	a0,s2
 220:	60e2                	ld	ra,24(sp)
 222:	6442                	ld	s0,16(sp)
 224:	64a2                	ld	s1,8(sp)
 226:	6902                	ld	s2,0(sp)
 228:	6105                	addi	sp,sp,32
 22a:	8082                	ret
    return -1;
 22c:	597d                	li	s2,-1
 22e:	bfc5                	j	21e <stat+0x28>

0000000000000230 <atoi>:

int
atoi(const char *s)
{
 230:	1141                	addi	sp,sp,-16
 232:	e422                	sd	s0,8(sp)
 234:	0800                	addi	s0,sp,16
  int n;

  n = 0;
  while('0' <= *s && *s <= '9')
 236:	00054603          	lbu	a2,0(a0)
 23a:	fd06079b          	addiw	a5,a2,-48
 23e:	0ff7f793          	andi	a5,a5,255
 242:	4725                	li	a4,9
 244:	02f76963          	bltu	a4,a5,276 <atoi+0x46>
 248:	86aa                	mv	a3,a0
  n = 0;
 24a:	4501                	li	a0,0
  while('0' <= *s && *s <= '9')
 24c:	45a5                	li	a1,9
    n = n*10 + *s++ - '0';
 24e:	0685                	addi	a3,a3,1
 250:	0025179b          	slliw	a5,a0,0x2
 254:	9fa9                	addw	a5,a5,a0
 256:	0017979b          	slliw	a5,a5,0x1
 25a:	9fb1                	addw	a5,a5,a2
 25c:	fd07851b          	addiw	a0,a5,-48
  while('0' <= *s && *s <= '9')
 260:	0006c603          	lbu	a2,0(a3)
 264:	fd06071b          	addiw	a4,a2,-48
 268:	0ff77713          	andi	a4,a4,255
 26c:	fee5f1e3          	bgeu	a1,a4,24e <atoi+0x1e>
  return n;
}
 270:	6422                	ld	s0,8(sp)
 272:	0141                	addi	sp,sp,16
 274:	8082                	ret
  n = 0;
 276:	4501                	li	a0,0
 278:	bfe5                	j	270 <atoi+0x40>

000000000000027a <memmove>:

void*
memmove(void *vdst, const void *vsrc, int n)
{
 27a:	1141                	addi	sp,sp,-16
 27c:	e422                	sd	s0,8(sp)
 27e:	0800                	addi	s0,sp,16
  char *dst;
  const char *src;

  dst = vdst;
  src = vsrc;
  if (src > dst) {
 280:	02b57463          	bgeu	a0,a1,2a8 <memmove+0x2e>
    while(n-- > 0)
 284:	00c05f63          	blez	a2,2a2 <memmove+0x28>
 288:	1602                	slli	a2,a2,0x20
 28a:	9201                	srli	a2,a2,0x20
 28c:	00c507b3          	add	a5,a0,a2
  dst = vdst;
 290:	872a                	mv	a4,a0
      *dst++ = *src++;
 292:	0585                	addi	a1,a1,1
 294:	0705                	addi	a4,a4,1
 296:	fff5c683          	lbu	a3,-1(a1)
 29a:	fed70fa3          	sb	a3,-1(a4)
    while(n-- > 0)
 29e:	fee79ae3          	bne	a5,a4,292 <memmove+0x18>
    src += n;
    while(n-- > 0)
      *--dst = *--src;
  }
  return vdst;
}
 2a2:	6422                	ld	s0,8(sp)
 2a4:	0141                	addi	sp,sp,16
 2a6:	8082                	ret
    dst += n;
 2a8:	00c50733          	add	a4,a0,a2
    src += n;
 2ac:	95b2                	add	a1,a1,a2
    while(n-- > 0)
 2ae:	fec05ae3          	blez	a2,2a2 <memmove+0x28>
 2b2:	fff6079b          	addiw	a5,a2,-1
 2b6:	1782                	slli	a5,a5,0x20
 2b8:	9381                	srli	a5,a5,0x20
 2ba:	fff7c793          	not	a5,a5
 2be:	97ba                	add	a5,a5,a4
      *--dst = *--src;
 2c0:	15fd                	addi	a1,a1,-1
 2c2:	177d                	addi	a4,a4,-1
 2c4:	0005c683          	lbu	a3,0(a1)
 2c8:	00d70023          	sb	a3,0(a4)
    while(n-- > 0)
 2cc:	fee79ae3          	bne	a5,a4,2c0 <memmove+0x46>
 2d0:	bfc9                	j	2a2 <memmove+0x28>

00000000000002d2 <memcmp>:

int
memcmp(const void *s1, const void *s2, uint n)
{
 2d2:	1141                	addi	sp,sp,-16
 2d4:	e422                	sd	s0,8(sp)
 2d6:	0800                	addi	s0,sp,16
  const char *p1 = s1, *p2 = s2;
  while (n-- > 0) {
 2d8:	ca05                	beqz	a2,308 <memcmp+0x36>
 2da:	fff6069b          	addiw	a3,a2,-1
 2de:	1682                	slli	a3,a3,0x20
 2e0:	9281                	srli	a3,a3,0x20
 2e2:	0685                	addi	a3,a3,1
 2e4:	96aa                	add	a3,a3,a0
    if (*p1 != *p2) {
 2e6:	00054783          	lbu	a5,0(a0)
 2ea:	0005c703          	lbu	a4,0(a1)
 2ee:	00e79863          	bne	a5,a4,2fe <memcmp+0x2c>
      return *p1 - *p2;
    }
    p1++;
 2f2:	0505                	addi	a0,a0,1
    p2++;
 2f4:	0585                	addi	a1,a1,1
  while (n-- > 0) {
 2f6:	fed518e3          	bne	a0,a3,2e6 <memcmp+0x14>
  }
  return 0;
 2fa:	4501                	li	a0,0
 2fc:	a019                	j	302 <memcmp+0x30>
      return *p1 - *p2;
 2fe:	40e7853b          	subw	a0,a5,a4
}
 302:	6422                	ld	s0,8(sp)
 304:	0141                	addi	sp,sp,16
 306:	8082                	ret
  return 0;
 308:	4501                	li	a0,0
 30a:	bfe5                	j	302 <memcmp+0x30>

000000000000030c <memcpy>:

void *
memcpy(void *dst, const void *src, uint n)
{
 30c:	1141                	addi	sp,sp,-16
 30e:	e406                	sd	ra,8(sp)
 310:	e022                	sd	s0,0(sp)
 312:	0800                	addi	s0,sp,16
  return memmove(dst, src, n);
 314:	f67ff0ef          	jal	ra,27a <memmove>
}
 318:	60a2                	ld	ra,8(sp)
 31a:	6402                	ld	s0,0(sp)
 31c:	0141                	addi	sp,sp,16
 31e:	8082                	ret

0000000000000320 <fork>:
# generated by usys.pl - do not edit
#include "kernel/syscall.h"
.global fork
fork:
 li a7, SYS_fork
 320:	4885                	li	a7,1
 ecall
 322:	00000073          	ecall
 ret
 326:	8082                	ret

0000000000000328 <exit>:
.global exit
exit:
 li a7, SYS_exit
 328:	4889                	li	a7,2
 ecall
 32a:	00000073          	ecall
 ret
 32e:	8082                	ret

0000000000000330 <wait>:
.global wait
wait:
 li a7, SYS_wait
 330:	488d                	li	a7,3
 ecall
 332:	00000073          	ecall
 ret
 336:	8082                	ret

0000000000000338 <pipe>:
.global pipe
pipe:
 li a7, SYS_pipe
 338:	4891                	li	a7,4
 ecall
 33a:	00000073          	ecall
 ret
 33e:	8082                	ret

0000000000000340 <read>:
.global read
read:
 li a7, SYS_read
 340:	4895                	li	a7,5
 ecall
 342:	00000073          	ecall
 ret
 346:	8082                	ret

0000000000000348 <write>:
.global write
write:
 li a7, SYS_write
 348:	48c1                	li	a7,16
 ecall
 34a:	00000073          	ecall
 ret
 34e:	8082                	ret

0000000000000350 <close>:
.global close
close:
 li a7, SYS_close
 350:	48d5                	li	a7,21
 ecall
 352:	00000073          	ecall
 ret
 356:	8082                	ret

0000000000000358 <kill>:
.global kill
kill:
 li a7, SYS_kill
 358:	4899                	li	a7,6
 ecall
 35a:	00000073          	ecall
 ret
 35e:	8082                	ret

0000000000000360 <exec>:
.global exec
exec:
 li a7, SYS_exec
 360:	489d                	li	a7,7
 ecall
 362:	00000073          	ecall
 ret
 366:	8082                	ret

0000000000000368 <open>:
.global open
open:
 li a7, SYS_open
 368:	48bd                	li	a7,15
 ecall
 36a:	00000073          	ecall
 ret
 36e:	8082                	ret

0000000000000370 <mknod>:
.global mknod
mknod:
 li a7, SYS_mknod
 370:	48c5                	li	a7,17
 ecall
 372:	00000073          	ecall
 ret
 376:	8082                	ret

0000000000000378 <unlink>:
.global unlink
unlink:
 li a7, SYS_unlink
 378:	48c9                	li	a7,18
 ecall
 37a:	00000073          	ecall
 ret
 37e:	8082                	ret

0000000000000380 <fstat>:
.global fstat
fstat:
 li a7, SYS_fstat
 380:	48a1                	li	a7,8
 ecall
 382:	00000073          	ecall
 ret
 386:	8082                	ret

0000000000000388 <link>:
.global link
link:
 li a7, SYS_link
 388:	48cd                	li	a7,19
 ecall
 38a:	00000073          	ecall
 ret
 38e:	8082                	ret

0000000000000390 <mkdir>:
.global mkdir
mkdir:
 li a7, SYS_mkdir
 390:	48d1                	li	a7,20
 ecall
 392:	00000073          	ecall
 ret
 396:	8082                	ret

0000000000000398 <chdir>:
.global chdir
chdir:
 li a7, SYS_chdir
 398:	48a5                	li	a7,9
 ecall
 39a:	00000073          	ecall
 ret
 39e:	8082                	ret

00000000000003a0 <dup>:
.global dup
dup:
 li a7, SYS_dup
 3a0:	48a9                	li	a7,10
 ecall
 3a2:	00000073          	ecall
 ret
 3a6:	8082                	ret

00000000000003a8 <getpid>:
.global getpid
getpid:
 li a7, SYS_getpid
 3a8:	48ad                	li	a7,11
 ecall
 3aa:	00000073          	ecall
 ret
 3ae:	8082                	ret

00000000000003b0 <sbrk>:
.global sbrk
sbrk:
 li a7, SYS_sbrk
 3b0:	48b1                	li	a7,12
 ecall
 3b2:	00000073          	ecall
 ret
 3b6:	8082                	ret

00000000000003b8 <sleep>:
.global sleep
sleep:
 li a7, SYS_sleep
 3b8:	48b5                	li	a7,13
 ecall
 3ba:	00000073          	ecall
 ret
 3be:	8082                	ret

00000000000003c0 <uptime>:
.global uptime
uptime:
 li a7, SYS_uptime
 3c0:	48b9                	li	a7,14
 ecall
 3c2:	00000073          	ecall
 ret
 3c6:	8082                	ret

00000000000003c8 <debugswitch>:
.global debugswitch
debugswitch:
 li a7, SYS_debugswitch
 3c8:	48d9                	li	a7,22
 ecall
 3ca:	00000073          	ecall
 ret
 3ce:	8082                	ret

00000000000003d0 <printfslab>:
.global printfslab
printfslab:
 li a7, SYS_printfslab
 3d0:	48dd                	li	a7,23
 ecall
 3d2:	00000073          	ecall
 ret
 3d6:	8082                	ret

00000000000003d8 <putc>:

static char digits[] = "0123456789ABCDEF";

static void
putc(int fd, char c)
{
 3d8:	1101                	addi	sp,sp,-32
 3da:	ec06                	sd	ra,24(sp)
 3dc:	e822                	sd	s0,16(sp)
 3de:	1000                	addi	s0,sp,32
 3e0:	feb407a3          	sb	a1,-17(s0)
  write(fd, &c, 1);
 3e4:	4605                	li	a2,1
 3e6:	fef40593          	addi	a1,s0,-17
 3ea:	f5fff0ef          	jal	ra,348 <write>
}
 3ee:	60e2                	ld	ra,24(sp)
 3f0:	6442                	ld	s0,16(sp)
 3f2:	6105                	addi	sp,sp,32
 3f4:	8082                	ret

00000000000003f6 <printint>:

static void
printint(int fd, int xx, int base, int sgn)
{
 3f6:	7139                	addi	sp,sp,-64
 3f8:	fc06                	sd	ra,56(sp)
 3fa:	f822                	sd	s0,48(sp)
 3fc:	f426                	sd	s1,40(sp)
 3fe:	f04a                	sd	s2,32(sp)
 400:	ec4e                	sd	s3,24(sp)
 402:	0080                	addi	s0,sp,64
 404:	84aa                	mv	s1,a0
  char buf[16];
  int i, neg;
  uint x;

  neg = 0;
  if(sgn && xx < 0){
 406:	c299                	beqz	a3,40c <printint+0x16>
 408:	0805c663          	bltz	a1,494 <printint+0x9e>
    neg = 1;
    x = -xx;
  } else {
    x = xx;
 40c:	2581                	sext.w	a1,a1
  neg = 0;
 40e:	4881                	li	a7,0
 410:	fc040693          	addi	a3,s0,-64
  }

  i = 0;
 414:	4701                	li	a4,0
  do{
    buf[i++] = digits[x % base];
 416:	2601                	sext.w	a2,a2
 418:	00000517          	auipc	a0,0x0
 41c:	54850513          	addi	a0,a0,1352 # 960 <digits>
 420:	883a                	mv	a6,a4
 422:	2705                	addiw	a4,a4,1
 424:	02c5f7bb          	remuw	a5,a1,a2
 428:	1782                	slli	a5,a5,0x20
 42a:	9381                	srli	a5,a5,0x20
 42c:	97aa                	add	a5,a5,a0
 42e:	0007c783          	lbu	a5,0(a5)
 432:	00f68023          	sb	a5,0(a3)
  }while((x /= base) != 0);
 436:	0005879b          	sext.w	a5,a1
 43a:	02c5d5bb          	divuw	a1,a1,a2
 43e:	0685                	addi	a3,a3,1
 440:	fec7f0e3          	bgeu	a5,a2,420 <printint+0x2a>
  if(neg)
 444:	00088b63          	beqz	a7,45a <printint+0x64>
    buf[i++] = '-';
 448:	fd040793          	addi	a5,s0,-48
 44c:	973e                	add	a4,a4,a5
 44e:	02d00793          	li	a5,45
 452:	fef70823          	sb	a5,-16(a4)
 456:	0028071b          	addiw	a4,a6,2

  while(--i >= 0)
 45a:	02e05663          	blez	a4,486 <printint+0x90>
 45e:	fc040793          	addi	a5,s0,-64
 462:	00e78933          	add	s2,a5,a4
 466:	fff78993          	addi	s3,a5,-1
 46a:	99ba                	add	s3,s3,a4
 46c:	377d                	addiw	a4,a4,-1
 46e:	1702                	slli	a4,a4,0x20
 470:	9301                	srli	a4,a4,0x20
 472:	40e989b3          	sub	s3,s3,a4
    putc(fd, buf[i]);
 476:	fff94583          	lbu	a1,-1(s2)
 47a:	8526                	mv	a0,s1
 47c:	f5dff0ef          	jal	ra,3d8 <putc>
  while(--i >= 0)
 480:	197d                	addi	s2,s2,-1
 482:	ff391ae3          	bne	s2,s3,476 <printint+0x80>
}
 486:	70e2                	ld	ra,56(sp)
 488:	7442                	ld	s0,48(sp)
 48a:	74a2                	ld	s1,40(sp)
 48c:	7902                	ld	s2,32(sp)
 48e:	69e2                	ld	s3,24(sp)
 490:	6121                	addi	sp,sp,64
 492:	8082                	ret
    x = -xx;
 494:	40b005bb          	negw	a1,a1
    neg = 1;
 498:	4885                	li	a7,1
    x = -xx;
 49a:	bf9d                	j	410 <printint+0x1a>

000000000000049c <vprintf>:
}

// Print to the given fd. Only understands %d, %x, %p, %s.
void
vprintf(int fd, const char *fmt, va_list ap)
{
 49c:	7119                	addi	sp,sp,-128
 49e:	fc86                	sd	ra,120(sp)
 4a0:	f8a2                	sd	s0,112(sp)
 4a2:	f4a6                	sd	s1,104(sp)
 4a4:	f0ca                	sd	s2,96(sp)
 4a6:	ecce                	sd	s3,88(sp)
 4a8:	e8d2                	sd	s4,80(sp)
 4aa:	e4d6                	sd	s5,72(sp)
 4ac:	e0da                	sd	s6,64(sp)
 4ae:	fc5e                	sd	s7,56(sp)
 4b0:	f862                	sd	s8,48(sp)
 4b2:	f466                	sd	s9,40(sp)
 4b4:	f06a                	sd	s10,32(sp)
 4b6:	ec6e                	sd	s11,24(sp)
 4b8:	0100                	addi	s0,sp,128
  char *s;
  int c0, c1, c2, i, state;

  state = 0;
  for(i = 0; fmt[i]; i++){
 4ba:	0005c903          	lbu	s2,0(a1)
 4be:	22090e63          	beqz	s2,6fa <vprintf+0x25e>
 4c2:	8b2a                	mv	s6,a0
 4c4:	8a2e                	mv	s4,a1
 4c6:	8bb2                	mv	s7,a2
  state = 0;
 4c8:	4981                	li	s3,0
  for(i = 0; fmt[i]; i++){
 4ca:	4481                	li	s1,0
 4cc:	4701                	li	a4,0
      if(c0 == '%'){
        state = '%';
      } else {
        putc(fd, c0);
      }
    } else if(state == '%'){
 4ce:	02500a93          	li	s5,37
      c1 = c2 = 0;
      if(c0) c1 = fmt[i+1] & 0xff;
      if(c1) c2 = fmt[i+2] & 0xff;
      if(c0 == 'd'){
 4d2:	06400c13          	li	s8,100
        printint(fd, va_arg(ap, int), 10, 1);
      } else if(c0 == 'l' && c1 == 'd'){
 4d6:	06c00d13          	li	s10,108
        printint(fd, va_arg(ap, uint64), 10, 1);
        i += 1;
      } else if(c0 == 'l' && c1 == 'l' && c2 == 'd'){
        printint(fd, va_arg(ap, uint64), 10, 1);
        i += 2;
      } else if(c0 == 'u'){
 4da:	07500d93          	li	s11,117
    putc(fd, digits[x >> (sizeof(uint64) * 8 - 4)]);
 4de:	00000c97          	auipc	s9,0x0
 4e2:	482c8c93          	addi	s9,s9,1154 # 960 <digits>
 4e6:	a005                	j	506 <vprintf+0x6a>
        putc(fd, c0);
 4e8:	85ca                	mv	a1,s2
 4ea:	855a                	mv	a0,s6
 4ec:	eedff0ef          	jal	ra,3d8 <putc>
 4f0:	a019                	j	4f6 <vprintf+0x5a>
    } else if(state == '%'){
 4f2:	03598263          	beq	s3,s5,516 <vprintf+0x7a>
  for(i = 0; fmt[i]; i++){
 4f6:	2485                	addiw	s1,s1,1
 4f8:	8726                	mv	a4,s1
 4fa:	009a07b3          	add	a5,s4,s1
 4fe:	0007c903          	lbu	s2,0(a5)
 502:	1e090c63          	beqz	s2,6fa <vprintf+0x25e>
    c0 = fmt[i] & 0xff;
 506:	0009079b          	sext.w	a5,s2
    if(state == 0){
 50a:	fe0994e3          	bnez	s3,4f2 <vprintf+0x56>
      if(c0 == '%'){
 50e:	fd579de3          	bne	a5,s5,4e8 <vprintf+0x4c>
        state = '%';
 512:	89be                	mv	s3,a5
 514:	b7cd                	j	4f6 <vprintf+0x5a>
      if(c0) c1 = fmt[i+1] & 0xff;
 516:	cfa5                	beqz	a5,58e <vprintf+0xf2>
 518:	00ea06b3          	add	a3,s4,a4
 51c:	0016c683          	lbu	a3,1(a3)
      c1 = c2 = 0;
 520:	8636                	mv	a2,a3
      if(c1) c2 = fmt[i+2] & 0xff;
 522:	c681                	beqz	a3,52a <vprintf+0x8e>
 524:	9752                	add	a4,a4,s4
 526:	00274603          	lbu	a2,2(a4)
      if(c0 == 'd'){
 52a:	03878a63          	beq	a5,s8,55e <vprintf+0xc2>
      } else if(c0 == 'l' && c1 == 'd'){
 52e:	05a78463          	beq	a5,s10,576 <vprintf+0xda>
      } else if(c0 == 'u'){
 532:	0db78763          	beq	a5,s11,600 <vprintf+0x164>
        printint(fd, va_arg(ap, uint64), 10, 0);
        i += 1;
      } else if(c0 == 'l' && c1 == 'l' && c2 == 'u'){
        printint(fd, va_arg(ap, uint64), 10, 0);
        i += 2;
      } else if(c0 == 'x'){
 536:	07800713          	li	a4,120
 53a:	10e78963          	beq	a5,a4,64c <vprintf+0x1b0>
        printint(fd, va_arg(ap, uint64), 16, 0);
        i += 1;
      } else if(c0 == 'l' && c1 == 'l' && c2 == 'x'){
        printint(fd, va_arg(ap, uint64), 16, 0);
        i += 2;
      } else if(c0 == 'p'){
 53e:	07000713          	li	a4,112
 542:	12e78e63          	beq	a5,a4,67e <vprintf+0x1e2>
        printptr(fd, va_arg(ap, uint64));
      } else if(c0 == 's'){
 546:	07300713          	li	a4,115
 54a:	16e78b63          	beq	a5,a4,6c0 <vprintf+0x224>
        if((s = va_arg(ap, char*)) == 0)
          s = "(null)";
        for(; *s; s++)
          putc(fd, *s);
      } else if(c0 == '%'){
 54e:	05579063          	bne	a5,s5,58e <vprintf+0xf2>
        putc(fd, '%');
 552:	85d6                	mv	a1,s5
 554:	855a                	mv	a0,s6
 556:	e83ff0ef          	jal	ra,3d8 <putc>
        // Unknown % sequence.  Print it to draw attention.
        putc(fd, '%');
        putc(fd, c);
      }
#endif
      state = 0;
 55a:	4981                	li	s3,0
 55c:	bf69                	j	4f6 <vprintf+0x5a>
        printint(fd, va_arg(ap, int), 10, 1);
 55e:	008b8913          	addi	s2,s7,8
 562:	4685                	li	a3,1
 564:	4629                	li	a2,10
 566:	000ba583          	lw	a1,0(s7)
 56a:	855a                	mv	a0,s6
 56c:	e8bff0ef          	jal	ra,3f6 <printint>
 570:	8bca                	mv	s7,s2
      state = 0;
 572:	4981                	li	s3,0
 574:	b749                	j	4f6 <vprintf+0x5a>
      } else if(c0 == 'l' && c1 == 'd'){
 576:	03868663          	beq	a3,s8,5a2 <vprintf+0x106>
      } else if(c0 == 'l' && c1 == 'l' && c2 == 'd'){
 57a:	05a68163          	beq	a3,s10,5bc <vprintf+0x120>
      } else if(c0 == 'l' && c1 == 'u'){
 57e:	09b68d63          	beq	a3,s11,618 <vprintf+0x17c>
      } else if(c0 == 'l' && c1 == 'l' && c2 == 'u'){
 582:	03a68f63          	beq	a3,s10,5c0 <vprintf+0x124>
      } else if(c0 == 'l' && c1 == 'x'){
 586:	07800793          	li	a5,120
 58a:	0cf68d63          	beq	a3,a5,664 <vprintf+0x1c8>
        putc(fd, '%');
 58e:	85d6                	mv	a1,s5
 590:	855a                	mv	a0,s6
 592:	e47ff0ef          	jal	ra,3d8 <putc>
        putc(fd, c0);
 596:	85ca                	mv	a1,s2
 598:	855a                	mv	a0,s6
 59a:	e3fff0ef          	jal	ra,3d8 <putc>
      state = 0;
 59e:	4981                	li	s3,0
 5a0:	bf99                	j	4f6 <vprintf+0x5a>
        printint(fd, va_arg(ap, uint64), 10, 1);
 5a2:	008b8913          	addi	s2,s7,8
 5a6:	4685                	li	a3,1
 5a8:	4629                	li	a2,10
 5aa:	000ba583          	lw	a1,0(s7)
 5ae:	855a                	mv	a0,s6
 5b0:	e47ff0ef          	jal	ra,3f6 <printint>
        i += 1;
 5b4:	2485                	addiw	s1,s1,1
        printint(fd, va_arg(ap, uint64), 10, 1);
 5b6:	8bca                	mv	s7,s2
      state = 0;
 5b8:	4981                	li	s3,0
        i += 1;
 5ba:	bf35                	j	4f6 <vprintf+0x5a>
      } else if(c0 == 'l' && c1 == 'l' && c2 == 'd'){
 5bc:	03860563          	beq	a2,s8,5e6 <vprintf+0x14a>
      } else if(c0 == 'l' && c1 == 'l' && c2 == 'u'){
 5c0:	07b60963          	beq	a2,s11,632 <vprintf+0x196>
      } else if(c0 == 'l' && c1 == 'l' && c2 == 'x'){
 5c4:	07800793          	li	a5,120
 5c8:	fcf613e3          	bne	a2,a5,58e <vprintf+0xf2>
        printint(fd, va_arg(ap, uint64), 16, 0);
 5cc:	008b8913          	addi	s2,s7,8
 5d0:	4681                	li	a3,0
 5d2:	4641                	li	a2,16
 5d4:	000ba583          	lw	a1,0(s7)
 5d8:	855a                	mv	a0,s6
 5da:	e1dff0ef          	jal	ra,3f6 <printint>
        i += 2;
 5de:	2489                	addiw	s1,s1,2
        printint(fd, va_arg(ap, uint64), 16, 0);
 5e0:	8bca                	mv	s7,s2
      state = 0;
 5e2:	4981                	li	s3,0
        i += 2;
 5e4:	bf09                	j	4f6 <vprintf+0x5a>
        printint(fd, va_arg(ap, uint64), 10, 1);
 5e6:	008b8913          	addi	s2,s7,8
 5ea:	4685                	li	a3,1
 5ec:	4629                	li	a2,10
 5ee:	000ba583          	lw	a1,0(s7)
 5f2:	855a                	mv	a0,s6
 5f4:	e03ff0ef          	jal	ra,3f6 <printint>
        i += 2;
 5f8:	2489                	addiw	s1,s1,2
        printint(fd, va_arg(ap, uint64), 10, 1);
 5fa:	8bca                	mv	s7,s2
      state = 0;
 5fc:	4981                	li	s3,0
        i += 2;
 5fe:	bde5                	j	4f6 <vprintf+0x5a>
        printint(fd, va_arg(ap, int), 10, 0);
 600:	008b8913          	addi	s2,s7,8
 604:	4681                	li	a3,0
 606:	4629                	li	a2,10
 608:	000ba583          	lw	a1,0(s7)
 60c:	855a                	mv	a0,s6
 60e:	de9ff0ef          	jal	ra,3f6 <printint>
 612:	8bca                	mv	s7,s2
      state = 0;
 614:	4981                	li	s3,0
 616:	b5c5                	j	4f6 <vprintf+0x5a>
        printint(fd, va_arg(ap, uint64), 10, 0);
 618:	008b8913          	addi	s2,s7,8
 61c:	4681                	li	a3,0
 61e:	4629                	li	a2,10
 620:	000ba583          	lw	a1,0(s7)
 624:	855a                	mv	a0,s6
 626:	dd1ff0ef          	jal	ra,3f6 <printint>
        i += 1;
 62a:	2485                	addiw	s1,s1,1
        printint(fd, va_arg(ap, uint64), 10, 0);
 62c:	8bca                	mv	s7,s2
      state = 0;
 62e:	4981                	li	s3,0
        i += 1;
 630:	b5d9                	j	4f6 <vprintf+0x5a>
        printint(fd, va_arg(ap, uint64), 10, 0);
 632:	008b8913          	addi	s2,s7,8
 636:	4681                	li	a3,0
 638:	4629                	li	a2,10
 63a:	000ba583          	lw	a1,0(s7)
 63e:	855a                	mv	a0,s6
 640:	db7ff0ef          	jal	ra,3f6 <printint>
        i += 2;
 644:	2489                	addiw	s1,s1,2
        printint(fd, va_arg(ap, uint64), 10, 0);
 646:	8bca                	mv	s7,s2
      state = 0;
 648:	4981                	li	s3,0
        i += 2;
 64a:	b575                	j	4f6 <vprintf+0x5a>
        printint(fd, va_arg(ap, int), 16, 0);
 64c:	008b8913          	addi	s2,s7,8
 650:	4681                	li	a3,0
 652:	4641                	li	a2,16
 654:	000ba583          	lw	a1,0(s7)
 658:	855a                	mv	a0,s6
 65a:	d9dff0ef          	jal	ra,3f6 <printint>
 65e:	8bca                	mv	s7,s2
      state = 0;
 660:	4981                	li	s3,0
 662:	bd51                	j	4f6 <vprintf+0x5a>
        printint(fd, va_arg(ap, uint64), 16, 0);
 664:	008b8913          	addi	s2,s7,8
 668:	4681                	li	a3,0
 66a:	4641                	li	a2,16
 66c:	000ba583          	lw	a1,0(s7)
 670:	855a                	mv	a0,s6
 672:	d85ff0ef          	jal	ra,3f6 <printint>
        i += 1;
 676:	2485                	addiw	s1,s1,1
        printint(fd, va_arg(ap, uint64), 16, 0);
 678:	8bca                	mv	s7,s2
      state = 0;
 67a:	4981                	li	s3,0
        i += 1;
 67c:	bdad                	j	4f6 <vprintf+0x5a>
        printptr(fd, va_arg(ap, uint64));
 67e:	008b8793          	addi	a5,s7,8
 682:	f8f43423          	sd	a5,-120(s0)
 686:	000bb983          	ld	s3,0(s7)
  putc(fd, '0');
 68a:	03000593          	li	a1,48
 68e:	855a                	mv	a0,s6
 690:	d49ff0ef          	jal	ra,3d8 <putc>
  putc(fd, 'x');
 694:	07800593          	li	a1,120
 698:	855a                	mv	a0,s6
 69a:	d3fff0ef          	jal	ra,3d8 <putc>
 69e:	4941                	li	s2,16
    putc(fd, digits[x >> (sizeof(uint64) * 8 - 4)]);
 6a0:	03c9d793          	srli	a5,s3,0x3c
 6a4:	97e6                	add	a5,a5,s9
 6a6:	0007c583          	lbu	a1,0(a5)
 6aa:	855a                	mv	a0,s6
 6ac:	d2dff0ef          	jal	ra,3d8 <putc>
  for (i = 0; i < (sizeof(uint64) * 2); i++, x <<= 4)
 6b0:	0992                	slli	s3,s3,0x4
 6b2:	397d                	addiw	s2,s2,-1
 6b4:	fe0916e3          	bnez	s2,6a0 <vprintf+0x204>
        printptr(fd, va_arg(ap, uint64));
 6b8:	f8843b83          	ld	s7,-120(s0)
      state = 0;
 6bc:	4981                	li	s3,0
 6be:	bd25                	j	4f6 <vprintf+0x5a>
        if((s = va_arg(ap, char*)) == 0)
 6c0:	008b8993          	addi	s3,s7,8
 6c4:	000bb903          	ld	s2,0(s7)
 6c8:	00090f63          	beqz	s2,6e6 <vprintf+0x24a>
        for(; *s; s++)
 6cc:	00094583          	lbu	a1,0(s2)
 6d0:	c195                	beqz	a1,6f4 <vprintf+0x258>
          putc(fd, *s);
 6d2:	855a                	mv	a0,s6
 6d4:	d05ff0ef          	jal	ra,3d8 <putc>
        for(; *s; s++)
 6d8:	0905                	addi	s2,s2,1
 6da:	00094583          	lbu	a1,0(s2)
 6de:	f9f5                	bnez	a1,6d2 <vprintf+0x236>
        if((s = va_arg(ap, char*)) == 0)
 6e0:	8bce                	mv	s7,s3
      state = 0;
 6e2:	4981                	li	s3,0
 6e4:	bd09                	j	4f6 <vprintf+0x5a>
          s = "(null)";
 6e6:	00000917          	auipc	s2,0x0
 6ea:	27290913          	addi	s2,s2,626 # 958 <malloc+0x15c>
        for(; *s; s++)
 6ee:	02800593          	li	a1,40
 6f2:	b7c5                	j	6d2 <vprintf+0x236>
        if((s = va_arg(ap, char*)) == 0)
 6f4:	8bce                	mv	s7,s3
      state = 0;
 6f6:	4981                	li	s3,0
 6f8:	bbfd                	j	4f6 <vprintf+0x5a>
    }
  }
}
 6fa:	70e6                	ld	ra,120(sp)
 6fc:	7446                	ld	s0,112(sp)
 6fe:	74a6                	ld	s1,104(sp)
 700:	7906                	ld	s2,96(sp)
 702:	69e6                	ld	s3,88(sp)
 704:	6a46                	ld	s4,80(sp)
 706:	6aa6                	ld	s5,72(sp)
 708:	6b06                	ld	s6,64(sp)
 70a:	7be2                	ld	s7,56(sp)
 70c:	7c42                	ld	s8,48(sp)
 70e:	7ca2                	ld	s9,40(sp)
 710:	7d02                	ld	s10,32(sp)
 712:	6de2                	ld	s11,24(sp)
 714:	6109                	addi	sp,sp,128
 716:	8082                	ret

0000000000000718 <fprintf>:

void
fprintf(int fd, const char *fmt, ...)
{
 718:	715d                	addi	sp,sp,-80
 71a:	ec06                	sd	ra,24(sp)
 71c:	e822                	sd	s0,16(sp)
 71e:	1000                	addi	s0,sp,32
 720:	e010                	sd	a2,0(s0)
 722:	e414                	sd	a3,8(s0)
 724:	e818                	sd	a4,16(s0)
 726:	ec1c                	sd	a5,24(s0)
 728:	03043023          	sd	a6,32(s0)
 72c:	03143423          	sd	a7,40(s0)
  va_list ap;

  va_start(ap, fmt);
 730:	fe843423          	sd	s0,-24(s0)
  vprintf(fd, fmt, ap);
 734:	8622                	mv	a2,s0
 736:	d67ff0ef          	jal	ra,49c <vprintf>
}
 73a:	60e2                	ld	ra,24(sp)
 73c:	6442                	ld	s0,16(sp)
 73e:	6161                	addi	sp,sp,80
 740:	8082                	ret

0000000000000742 <printf>:

void
printf(const char *fmt, ...)
{
 742:	711d                	addi	sp,sp,-96
 744:	ec06                	sd	ra,24(sp)
 746:	e822                	sd	s0,16(sp)
 748:	1000                	addi	s0,sp,32
 74a:	e40c                	sd	a1,8(s0)
 74c:	e810                	sd	a2,16(s0)
 74e:	ec14                	sd	a3,24(s0)
 750:	f018                	sd	a4,32(s0)
 752:	f41c                	sd	a5,40(s0)
 754:	03043823          	sd	a6,48(s0)
 758:	03143c23          	sd	a7,56(s0)
  va_list ap;

  va_start(ap, fmt);
 75c:	00840613          	addi	a2,s0,8
 760:	fec43423          	sd	a2,-24(s0)
  vprintf(1, fmt, ap);
 764:	85aa                	mv	a1,a0
 766:	4505                	li	a0,1
 768:	d35ff0ef          	jal	ra,49c <vprintf>
}
 76c:	60e2                	ld	ra,24(sp)
 76e:	6442                	ld	s0,16(sp)
 770:	6125                	addi	sp,sp,96
 772:	8082                	ret

0000000000000774 <free>:
static Header base;
static Header *freep;

void
free(void *ap)
{
 774:	1141                	addi	sp,sp,-16
 776:	e422                	sd	s0,8(sp)
 778:	0800                	addi	s0,sp,16
  Header *bp, *p;

  bp = (Header*)ap - 1;
 77a:	ff050693          	addi	a3,a0,-16
  for(p = freep; !(bp > p && bp < p->s.ptr); p = p->s.ptr)
 77e:	00001797          	auipc	a5,0x1
 782:	8927b783          	ld	a5,-1902(a5) # 1010 <freep>
 786:	a805                	j	7b6 <free+0x42>
    if(p >= p->s.ptr && (bp > p || bp < p->s.ptr))
      break;
  if(bp + bp->s.size == p->s.ptr){
    bp->s.size += p->s.ptr->s.size;
 788:	4618                	lw	a4,8(a2)
 78a:	9db9                	addw	a1,a1,a4
 78c:	feb52c23          	sw	a1,-8(a0)
    bp->s.ptr = p->s.ptr->s.ptr;
 790:	6398                	ld	a4,0(a5)
 792:	6318                	ld	a4,0(a4)
 794:	fee53823          	sd	a4,-16(a0)
 798:	a091                	j	7dc <free+0x68>
  } else
    bp->s.ptr = p->s.ptr;
  if(p + p->s.size == bp){
    p->s.size += bp->s.size;
 79a:	ff852703          	lw	a4,-8(a0)
 79e:	9e39                	addw	a2,a2,a4
 7a0:	c790                	sw	a2,8(a5)
    p->s.ptr = bp->s.ptr;
 7a2:	ff053703          	ld	a4,-16(a0)
 7a6:	e398                	sd	a4,0(a5)
 7a8:	a099                	j	7ee <free+0x7a>
    if(p >= p->s.ptr && (bp > p || bp < p->s.ptr))
 7aa:	6398                	ld	a4,0(a5)
 7ac:	00e7e463          	bltu	a5,a4,7b4 <free+0x40>
 7b0:	00e6ea63          	bltu	a3,a4,7c4 <free+0x50>
{
 7b4:	87ba                	mv	a5,a4
  for(p = freep; !(bp > p && bp < p->s.ptr); p = p->s.ptr)
 7b6:	fed7fae3          	bgeu	a5,a3,7aa <free+0x36>
 7ba:	6398                	ld	a4,0(a5)
 7bc:	00e6e463          	bltu	a3,a4,7c4 <free+0x50>
    if(p >= p->s.ptr && (bp > p || bp < p->s.ptr))
 7c0:	fee7eae3          	bltu	a5,a4,7b4 <free+0x40>
  if(bp + bp->s.size == p->s.ptr){
 7c4:	ff852583          	lw	a1,-8(a0)
 7c8:	6390                	ld	a2,0(a5)
 7ca:	02059713          	slli	a4,a1,0x20
 7ce:	9301                	srli	a4,a4,0x20
 7d0:	0712                	slli	a4,a4,0x4
 7d2:	9736                	add	a4,a4,a3
 7d4:	fae60ae3          	beq	a2,a4,788 <free+0x14>
    bp->s.ptr = p->s.ptr;
 7d8:	fec53823          	sd	a2,-16(a0)
  if(p + p->s.size == bp){
 7dc:	4790                	lw	a2,8(a5)
 7de:	02061713          	slli	a4,a2,0x20
 7e2:	9301                	srli	a4,a4,0x20
 7e4:	0712                	slli	a4,a4,0x4
 7e6:	973e                	add	a4,a4,a5
 7e8:	fae689e3          	beq	a3,a4,79a <free+0x26>
  } else
    p->s.ptr = bp;
 7ec:	e394                	sd	a3,0(a5)
  freep = p;
 7ee:	00001717          	auipc	a4,0x1
 7f2:	82f73123          	sd	a5,-2014(a4) # 1010 <freep>
}
 7f6:	6422                	ld	s0,8(sp)
 7f8:	0141                	addi	sp,sp,16
 7fa:	8082                	ret

00000000000007fc <malloc>:
  return freep;
}

void*
malloc(uint nbytes)
{
 7fc:	7139                	addi	sp,sp,-64
 7fe:	fc06                	sd	ra,56(sp)
 800:	f822                	sd	s0,48(sp)
 802:	f426                	sd	s1,40(sp)
 804:	f04a                	sd	s2,32(sp)
 806:	ec4e                	sd	s3,24(sp)
 808:	e852                	sd	s4,16(sp)
 80a:	e456                	sd	s5,8(sp)
 80c:	e05a                	sd	s6,0(sp)
 80e:	0080                	addi	s0,sp,64
  Header *p, *prevp;
  uint nunits;

  nunits = (nbytes + sizeof(Header) - 1)/sizeof(Header) + 1;
 810:	02051493          	slli	s1,a0,0x20
 814:	9081                	srli	s1,s1,0x20
 816:	04bd                	addi	s1,s1,15
 818:	8091                	srli	s1,s1,0x4
 81a:	0014899b          	addiw	s3,s1,1
 81e:	0485                	addi	s1,s1,1
  if((prevp = freep) == 0){
 820:	00000517          	auipc	a0,0x0
 824:	7f053503          	ld	a0,2032(a0) # 1010 <freep>
 828:	c515                	beqz	a0,854 <malloc+0x58>
    base.s.ptr = freep = prevp = &base;
    base.s.size = 0;
  }
  for(p = prevp->s.ptr; ; prevp = p, p = p->s.ptr){
 82a:	611c                	ld	a5,0(a0)
    if(p->s.size >= nunits){
 82c:	4798                	lw	a4,8(a5)
 82e:	02977f63          	bgeu	a4,s1,86c <malloc+0x70>
 832:	8a4e                	mv	s4,s3
 834:	0009871b          	sext.w	a4,s3
 838:	6685                	lui	a3,0x1
 83a:	00d77363          	bgeu	a4,a3,840 <malloc+0x44>
 83e:	6a05                	lui	s4,0x1
 840:	000a0b1b          	sext.w	s6,s4
  p = sbrk(nu * sizeof(Header));
 844:	004a1a1b          	slliw	s4,s4,0x4
        p->s.size = nunits;
      }
      freep = prevp;
      return (void*)(p + 1);
    }
    if(p == freep)
 848:	00000917          	auipc	s2,0x0
 84c:	7c890913          	addi	s2,s2,1992 # 1010 <freep>
  if(p == (char*)-1)
 850:	5afd                	li	s5,-1
 852:	a0bd                	j	8c0 <malloc+0xc4>
    base.s.ptr = freep = prevp = &base;
 854:	00000797          	auipc	a5,0x0
 858:	7cc78793          	addi	a5,a5,1996 # 1020 <base>
 85c:	00000717          	auipc	a4,0x0
 860:	7af73a23          	sd	a5,1972(a4) # 1010 <freep>
 864:	e39c                	sd	a5,0(a5)
    base.s.size = 0;
 866:	0007a423          	sw	zero,8(a5)
    if(p->s.size >= nunits){
 86a:	b7e1                	j	832 <malloc+0x36>
      if(p->s.size == nunits)
 86c:	02e48b63          	beq	s1,a4,8a2 <malloc+0xa6>
        p->s.size -= nunits;
 870:	4137073b          	subw	a4,a4,s3
 874:	c798                	sw	a4,8(a5)
        p += p->s.size;
 876:	1702                	slli	a4,a4,0x20
 878:	9301                	srli	a4,a4,0x20
 87a:	0712                	slli	a4,a4,0x4
 87c:	97ba                	add	a5,a5,a4
        p->s.size = nunits;
 87e:	0137a423          	sw	s3,8(a5)
      freep = prevp;
 882:	00000717          	auipc	a4,0x0
 886:	78a73723          	sd	a0,1934(a4) # 1010 <freep>
      return (void*)(p + 1);
 88a:	01078513          	addi	a0,a5,16
      if((p = morecore(nunits)) == 0)
        return 0;
  }
}
 88e:	70e2                	ld	ra,56(sp)
 890:	7442                	ld	s0,48(sp)
 892:	74a2                	ld	s1,40(sp)
 894:	7902                	ld	s2,32(sp)
 896:	69e2                	ld	s3,24(sp)
 898:	6a42                	ld	s4,16(sp)
 89a:	6aa2                	ld	s5,8(sp)
 89c:	6b02                	ld	s6,0(sp)
 89e:	6121                	addi	sp,sp,64
 8a0:	8082                	ret
        prevp->s.ptr = p->s.ptr;
 8a2:	6398                	ld	a4,0(a5)
 8a4:	e118                	sd	a4,0(a0)
 8a6:	bff1                	j	882 <malloc+0x86>
  hp->s.size = nu;
 8a8:	01652423          	sw	s6,8(a0)
  free((void*)(hp + 1));
 8ac:	0541                	addi	a0,a0,16
 8ae:	ec7ff0ef          	jal	ra,774 <free>
  return freep;
 8b2:	00093503          	ld	a0,0(s2)
      if((p = morecore(nunits)) == 0)
 8b6:	dd61                	beqz	a0,88e <malloc+0x92>
  for(p = prevp->s.ptr; ; prevp = p, p = p->s.ptr){
 8b8:	611c                	ld	a5,0(a0)
    if(p->s.size >= nunits){
 8ba:	4798                	lw	a4,8(a5)
 8bc:	fa9778e3          	bgeu	a4,s1,86c <malloc+0x70>
    if(p == freep)
 8c0:	00093703          	ld	a4,0(s2)
 8c4:	853e                	mv	a0,a5
 8c6:	fef719e3          	bne	a4,a5,8b8 <malloc+0xbc>
  p = sbrk(nu * sizeof(Header));
 8ca:	8552                	mv	a0,s4
 8cc:	ae5ff0ef          	jal	ra,3b0 <sbrk>
  if(p == (char*)-1)
 8d0:	fd551ce3          	bne	a0,s5,8a8 <malloc+0xac>
        return 0;
 8d4:	4501                	li	a0,0
 8d6:	bf65                	j	88e <malloc+0x92>
