
kernel/kernel:     file format elf64-littleriscv


Disassembly of section .text:

0000000080000000 <_entry>:
    80000000:	00008117          	auipc	sp,0x8
    80000004:	ca013103          	ld	sp,-864(sp) # 80007ca0 <_GLOBAL_OFFSET_TABLE_+0x8>
    80000008:	6505                	lui	a0,0x1
    8000000a:	f14025f3          	csrr	a1,mhartid
    8000000e:	0585                	addi	a1,a1,1
    80000010:	02b50533          	mul	a0,a0,a1
    80000014:	912a                	add	sp,sp,a0
    80000016:	04a000ef          	jal	ra,80000060 <start>

000000008000001a <spin>:
    8000001a:	a001                	j	8000001a <spin>

000000008000001c <timerinit>:
}

// ask each hart to generate timer interrupts.
void
timerinit()
{
    8000001c:	1141                	addi	sp,sp,-16
    8000001e:	e422                	sd	s0,8(sp)
    80000020:	0800                	addi	s0,sp,16
#define MIE_STIE (1L << 5)  // supervisor timer
static inline uint64
r_mie()
{
  uint64 x;
  asm volatile("csrr %0, mie" : "=r" (x) );
    80000022:	304027f3          	csrr	a5,mie
  // enable supervisor-mode timer interrupts.
  w_mie(r_mie() | MIE_STIE);
    80000026:	0207e793          	ori	a5,a5,32
}

static inline void 
w_mie(uint64 x)
{
  asm volatile("csrw mie, %0" : : "r" (x));
    8000002a:	30479073          	csrw	mie,a5
static inline uint64
r_menvcfg()
{
  uint64 x;
  // asm volatile("csrr %0, menvcfg" : "=r" (x) );
  asm volatile("csrr %0, 0x30a" : "=r" (x) );
    8000002e:	30a027f3          	csrr	a5,0x30a
  
  // enable the sstc extension (i.e. stimecmp).
  w_menvcfg(r_menvcfg() | (1L << 63)); 
    80000032:	577d                	li	a4,-1
    80000034:	177e                	slli	a4,a4,0x3f
    80000036:	8fd9                	or	a5,a5,a4

static inline void 
w_menvcfg(uint64 x)
{
  // asm volatile("csrw menvcfg, %0" : : "r" (x));
  asm volatile("csrw 0x30a, %0" : : "r" (x));
    80000038:	30a79073          	csrw	0x30a,a5

static inline uint64
r_mcounteren()
{
  uint64 x;
  asm volatile("csrr %0, mcounteren" : "=r" (x) );
    8000003c:	306027f3          	csrr	a5,mcounteren
  
  // allow supervisor to use stimecmp and time.
  w_mcounteren(r_mcounteren() | 2);
    80000040:	0027e793          	ori	a5,a5,2
  asm volatile("csrw mcounteren, %0" : : "r" (x));
    80000044:	30679073          	csrw	mcounteren,a5
// machine-mode cycle counter
static inline uint64
r_time()
{
  uint64 x;
  asm volatile("csrr %0, time" : "=r" (x) );
    80000048:	c01027f3          	rdtime	a5
  
  // ask for the very first timer interrupt.
  w_stimecmp(r_time() + 1000000);
    8000004c:	000f4737          	lui	a4,0xf4
    80000050:	24070713          	addi	a4,a4,576 # f4240 <_entry-0x7ff0bdc0>
    80000054:	97ba                	add	a5,a5,a4
  asm volatile("csrw 0x14d, %0" : : "r" (x));
    80000056:	14d79073          	csrw	0x14d,a5
}
    8000005a:	6422                	ld	s0,8(sp)
    8000005c:	0141                	addi	sp,sp,16
    8000005e:	8082                	ret

0000000080000060 <start>:
{
    80000060:	1141                	addi	sp,sp,-16
    80000062:	e406                	sd	ra,8(sp)
    80000064:	e022                	sd	s0,0(sp)
    80000066:	0800                	addi	s0,sp,16
  asm volatile("csrr %0, mstatus" : "=r" (x) );
    80000068:	300027f3          	csrr	a5,mstatus
  x &= ~MSTATUS_MPP_MASK;
    8000006c:	7779                	lui	a4,0xffffe
    8000006e:	7ff70713          	addi	a4,a4,2047 # ffffffffffffe7ff <end+0xffffffff7ffb62df>
    80000072:	8ff9                	and	a5,a5,a4
  x |= MSTATUS_MPP_S;
    80000074:	6705                	lui	a4,0x1
    80000076:	80070713          	addi	a4,a4,-2048 # 800 <_entry-0x7ffff800>
    8000007a:	8fd9                	or	a5,a5,a4
  asm volatile("csrw mstatus, %0" : : "r" (x));
    8000007c:	30079073          	csrw	mstatus,a5
  asm volatile("csrw mepc, %0" : : "r" (x));
    80000080:	00001797          	auipc	a5,0x1
    80000084:	db878793          	addi	a5,a5,-584 # 80000e38 <main>
    80000088:	34179073          	csrw	mepc,a5
  asm volatile("csrw satp, %0" : : "r" (x));
    8000008c:	4781                	li	a5,0
    8000008e:	18079073          	csrw	satp,a5
  asm volatile("csrw medeleg, %0" : : "r" (x));
    80000092:	67c1                	lui	a5,0x10
    80000094:	17fd                	addi	a5,a5,-1
    80000096:	30279073          	csrw	medeleg,a5
  asm volatile("csrw mideleg, %0" : : "r" (x));
    8000009a:	30379073          	csrw	mideleg,a5
  asm volatile("csrr %0, sie" : "=r" (x) );
    8000009e:	104027f3          	csrr	a5,sie
  w_sie(r_sie() | SIE_SEIE | SIE_STIE | SIE_SSIE);
    800000a2:	2227e793          	ori	a5,a5,546
  asm volatile("csrw sie, %0" : : "r" (x));
    800000a6:	10479073          	csrw	sie,a5
  asm volatile("csrw pmpaddr0, %0" : : "r" (x));
    800000aa:	57fd                	li	a5,-1
    800000ac:	83a9                	srli	a5,a5,0xa
    800000ae:	3b079073          	csrw	pmpaddr0,a5
  asm volatile("csrw pmpcfg0, %0" : : "r" (x));
    800000b2:	47bd                	li	a5,15
    800000b4:	3a079073          	csrw	pmpcfg0,a5
  timerinit();
    800000b8:	f65ff0ef          	jal	ra,8000001c <timerinit>
  asm volatile("csrr %0, mhartid" : "=r" (x) );
    800000bc:	f14027f3          	csrr	a5,mhartid
  w_tp(id);
    800000c0:	2781                	sext.w	a5,a5
}

static inline void 
w_tp(uint64 x)
{
  asm volatile("mv tp, %0" : : "r" (x));
    800000c2:	823e                	mv	tp,a5
  asm volatile("mret");
    800000c4:	30200073          	mret
}
    800000c8:	60a2                	ld	ra,8(sp)
    800000ca:	6402                	ld	s0,0(sp)
    800000cc:	0141                	addi	sp,sp,16
    800000ce:	8082                	ret

00000000800000d0 <consolewrite>:
//
// user write()s to the console go here.
//
int
consolewrite(int user_src, uint64 src, int n)
{
    800000d0:	715d                	addi	sp,sp,-80
    800000d2:	e486                	sd	ra,72(sp)
    800000d4:	e0a2                	sd	s0,64(sp)
    800000d6:	fc26                	sd	s1,56(sp)
    800000d8:	f84a                	sd	s2,48(sp)
    800000da:	f44e                	sd	s3,40(sp)
    800000dc:	f052                	sd	s4,32(sp)
    800000de:	ec56                	sd	s5,24(sp)
    800000e0:	0880                	addi	s0,sp,80
  int i;

  for(i = 0; i < n; i++){
    800000e2:	04c05263          	blez	a2,80000126 <consolewrite+0x56>
    800000e6:	8a2a                	mv	s4,a0
    800000e8:	84ae                	mv	s1,a1
    800000ea:	89b2                	mv	s3,a2
    800000ec:	4901                	li	s2,0
    char c;
    if(either_copyin(&c, user_src, src+i, 1) == -1)
    800000ee:	5afd                	li	s5,-1
    800000f0:	4685                	li	a3,1
    800000f2:	8626                	mv	a2,s1
    800000f4:	85d2                	mv	a1,s4
    800000f6:	fbf40513          	addi	a0,s0,-65
    800000fa:	0d0020ef          	jal	ra,800021ca <either_copyin>
    800000fe:	01550a63          	beq	a0,s5,80000112 <consolewrite+0x42>
      break;
    uartputc(c);
    80000102:	fbf44503          	lbu	a0,-65(s0)
    80000106:	7da000ef          	jal	ra,800008e0 <uartputc>
  for(i = 0; i < n; i++){
    8000010a:	2905                	addiw	s2,s2,1
    8000010c:	0485                	addi	s1,s1,1
    8000010e:	ff2991e3          	bne	s3,s2,800000f0 <consolewrite+0x20>
  }

  return i;
}
    80000112:	854a                	mv	a0,s2
    80000114:	60a6                	ld	ra,72(sp)
    80000116:	6406                	ld	s0,64(sp)
    80000118:	74e2                	ld	s1,56(sp)
    8000011a:	7942                	ld	s2,48(sp)
    8000011c:	79a2                	ld	s3,40(sp)
    8000011e:	7a02                	ld	s4,32(sp)
    80000120:	6ae2                	ld	s5,24(sp)
    80000122:	6161                	addi	sp,sp,80
    80000124:	8082                	ret
  for(i = 0; i < n; i++){
    80000126:	4901                	li	s2,0
    80000128:	b7ed                	j	80000112 <consolewrite+0x42>

000000008000012a <consoleread>:
// user_dist indicates whether dst is a user
// or kernel address.
//
int
consoleread(int user_dst, uint64 dst, int n)
{
    8000012a:	7159                	addi	sp,sp,-112
    8000012c:	f486                	sd	ra,104(sp)
    8000012e:	f0a2                	sd	s0,96(sp)
    80000130:	eca6                	sd	s1,88(sp)
    80000132:	e8ca                	sd	s2,80(sp)
    80000134:	e4ce                	sd	s3,72(sp)
    80000136:	e0d2                	sd	s4,64(sp)
    80000138:	fc56                	sd	s5,56(sp)
    8000013a:	f85a                	sd	s6,48(sp)
    8000013c:	f45e                	sd	s7,40(sp)
    8000013e:	f062                	sd	s8,32(sp)
    80000140:	ec66                	sd	s9,24(sp)
    80000142:	e86a                	sd	s10,16(sp)
    80000144:	1880                	addi	s0,sp,112
    80000146:	8aaa                	mv	s5,a0
    80000148:	8a2e                	mv	s4,a1
    8000014a:	89b2                	mv	s3,a2
  uint target;
  int c;
  char cbuf;

  target = n;
    8000014c:	00060b1b          	sext.w	s6,a2
  acquire(&cons.lock);
    80000150:	00010517          	auipc	a0,0x10
    80000154:	bb050513          	addi	a0,a0,-1104 # 8000fd00 <cons>
    80000158:	243000ef          	jal	ra,80000b9a <acquire>
  while(n > 0){
    // wait until interrupt handler has put some
    // input into cons.buffer.
    while(cons.r == cons.w){
    8000015c:	00010497          	auipc	s1,0x10
    80000160:	ba448493          	addi	s1,s1,-1116 # 8000fd00 <cons>
      if(killed(myproc())){
        release(&cons.lock);
        return -1;
      }
      sleep(&cons.r, &cons.lock);
    80000164:	00010917          	auipc	s2,0x10
    80000168:	c3490913          	addi	s2,s2,-972 # 8000fd98 <cons+0x98>
    }

    c = cons.buf[cons.r++ % INPUT_BUF_SIZE];

    if(c == C('D')){  // end-of-file
    8000016c:	4b91                	li	s7,4
      break;
    }

    // copy the input byte to the user-space buffer.
    cbuf = c;
    if(either_copyout(user_dst, dst, &cbuf, 1) == -1)
    8000016e:	5c7d                	li	s8,-1
      break;

    dst++;
    --n;

    if(c == '\n'){
    80000170:	4ca9                	li	s9,10
  while(n > 0){
    80000172:	07305363          	blez	s3,800001d8 <consoleread+0xae>
    while(cons.r == cons.w){
    80000176:	0984a783          	lw	a5,152(s1)
    8000017a:	09c4a703          	lw	a4,156(s1)
    8000017e:	02f71163          	bne	a4,a5,800001a0 <consoleread+0x76>
      if(killed(myproc())){
    80000182:	6d6010ef          	jal	ra,80001858 <myproc>
    80000186:	6d7010ef          	jal	ra,8000205c <killed>
    8000018a:	e125                	bnez	a0,800001ea <consoleread+0xc0>
      sleep(&cons.r, &cons.lock);
    8000018c:	85a6                	mv	a1,s1
    8000018e:	854a                	mv	a0,s2
    80000190:	495010ef          	jal	ra,80001e24 <sleep>
    while(cons.r == cons.w){
    80000194:	0984a783          	lw	a5,152(s1)
    80000198:	09c4a703          	lw	a4,156(s1)
    8000019c:	fef703e3          	beq	a4,a5,80000182 <consoleread+0x58>
    c = cons.buf[cons.r++ % INPUT_BUF_SIZE];
    800001a0:	0017871b          	addiw	a4,a5,1
    800001a4:	08e4ac23          	sw	a4,152(s1)
    800001a8:	07f7f713          	andi	a4,a5,127
    800001ac:	9726                	add	a4,a4,s1
    800001ae:	01874703          	lbu	a4,24(a4)
    800001b2:	00070d1b          	sext.w	s10,a4
    if(c == C('D')){  // end-of-file
    800001b6:	057d0f63          	beq	s10,s7,80000214 <consoleread+0xea>
    cbuf = c;
    800001ba:	f8e40fa3          	sb	a4,-97(s0)
    if(either_copyout(user_dst, dst, &cbuf, 1) == -1)
    800001be:	4685                	li	a3,1
    800001c0:	f9f40613          	addi	a2,s0,-97
    800001c4:	85d2                	mv	a1,s4
    800001c6:	8556                	mv	a0,s5
    800001c8:	7b9010ef          	jal	ra,80002180 <either_copyout>
    800001cc:	01850663          	beq	a0,s8,800001d8 <consoleread+0xae>
    dst++;
    800001d0:	0a05                	addi	s4,s4,1
    --n;
    800001d2:	39fd                	addiw	s3,s3,-1
    if(c == '\n'){
    800001d4:	f99d1fe3          	bne	s10,s9,80000172 <consoleread+0x48>
      // a whole line has arrived, return to
      // the user-level read().
      break;
    }
  }
  release(&cons.lock);
    800001d8:	00010517          	auipc	a0,0x10
    800001dc:	b2850513          	addi	a0,a0,-1240 # 8000fd00 <cons>
    800001e0:	253000ef          	jal	ra,80000c32 <release>

  return target - n;
    800001e4:	413b053b          	subw	a0,s6,s3
    800001e8:	a801                	j	800001f8 <consoleread+0xce>
        release(&cons.lock);
    800001ea:	00010517          	auipc	a0,0x10
    800001ee:	b1650513          	addi	a0,a0,-1258 # 8000fd00 <cons>
    800001f2:	241000ef          	jal	ra,80000c32 <release>
        return -1;
    800001f6:	557d                	li	a0,-1
}
    800001f8:	70a6                	ld	ra,104(sp)
    800001fa:	7406                	ld	s0,96(sp)
    800001fc:	64e6                	ld	s1,88(sp)
    800001fe:	6946                	ld	s2,80(sp)
    80000200:	69a6                	ld	s3,72(sp)
    80000202:	6a06                	ld	s4,64(sp)
    80000204:	7ae2                	ld	s5,56(sp)
    80000206:	7b42                	ld	s6,48(sp)
    80000208:	7ba2                	ld	s7,40(sp)
    8000020a:	7c02                	ld	s8,32(sp)
    8000020c:	6ce2                	ld	s9,24(sp)
    8000020e:	6d42                	ld	s10,16(sp)
    80000210:	6165                	addi	sp,sp,112
    80000212:	8082                	ret
      if(n < target){
    80000214:	0009871b          	sext.w	a4,s3
    80000218:	fd6770e3          	bgeu	a4,s6,800001d8 <consoleread+0xae>
        cons.r--;
    8000021c:	00010717          	auipc	a4,0x10
    80000220:	b6f72e23          	sw	a5,-1156(a4) # 8000fd98 <cons+0x98>
    80000224:	bf55                	j	800001d8 <consoleread+0xae>

0000000080000226 <consputc>:
{
    80000226:	1141                	addi	sp,sp,-16
    80000228:	e406                	sd	ra,8(sp)
    8000022a:	e022                	sd	s0,0(sp)
    8000022c:	0800                	addi	s0,sp,16
  if(c == BACKSPACE){
    8000022e:	10000793          	li	a5,256
    80000232:	00f50863          	beq	a0,a5,80000242 <consputc+0x1c>
    uartputc_sync(c);
    80000236:	5d4000ef          	jal	ra,8000080a <uartputc_sync>
}
    8000023a:	60a2                	ld	ra,8(sp)
    8000023c:	6402                	ld	s0,0(sp)
    8000023e:	0141                	addi	sp,sp,16
    80000240:	8082                	ret
    uartputc_sync('\b'); uartputc_sync(' '); uartputc_sync('\b');
    80000242:	4521                	li	a0,8
    80000244:	5c6000ef          	jal	ra,8000080a <uartputc_sync>
    80000248:	02000513          	li	a0,32
    8000024c:	5be000ef          	jal	ra,8000080a <uartputc_sync>
    80000250:	4521                	li	a0,8
    80000252:	5b8000ef          	jal	ra,8000080a <uartputc_sync>
    80000256:	b7d5                	j	8000023a <consputc+0x14>

0000000080000258 <consoleintr>:
// do erase/kill processing, append to cons.buf,
// wake up consoleread() if a whole line has arrived.
//
void
consoleintr(int c)
{
    80000258:	1101                	addi	sp,sp,-32
    8000025a:	ec06                	sd	ra,24(sp)
    8000025c:	e822                	sd	s0,16(sp)
    8000025e:	e426                	sd	s1,8(sp)
    80000260:	e04a                	sd	s2,0(sp)
    80000262:	1000                	addi	s0,sp,32
    80000264:	84aa                	mv	s1,a0
  acquire(&cons.lock);
    80000266:	00010517          	auipc	a0,0x10
    8000026a:	a9a50513          	addi	a0,a0,-1382 # 8000fd00 <cons>
    8000026e:	12d000ef          	jal	ra,80000b9a <acquire>

  switch(c){
    80000272:	47d5                	li	a5,21
    80000274:	0af48063          	beq	s1,a5,80000314 <consoleintr+0xbc>
    80000278:	0297c663          	blt	a5,s1,800002a4 <consoleintr+0x4c>
    8000027c:	47a1                	li	a5,8
    8000027e:	0cf48f63          	beq	s1,a5,8000035c <consoleintr+0x104>
    80000282:	47c1                	li	a5,16
    80000284:	10f49063          	bne	s1,a5,80000384 <consoleintr+0x12c>
  case C('P'):  // Print process list.
    procdump();
    80000288:	78d010ef          	jal	ra,80002214 <procdump>
      }
    }
    break;
  }
  
  release(&cons.lock);
    8000028c:	00010517          	auipc	a0,0x10
    80000290:	a7450513          	addi	a0,a0,-1420 # 8000fd00 <cons>
    80000294:	19f000ef          	jal	ra,80000c32 <release>
}
    80000298:	60e2                	ld	ra,24(sp)
    8000029a:	6442                	ld	s0,16(sp)
    8000029c:	64a2                	ld	s1,8(sp)
    8000029e:	6902                	ld	s2,0(sp)
    800002a0:	6105                	addi	sp,sp,32
    800002a2:	8082                	ret
  switch(c){
    800002a4:	07f00793          	li	a5,127
    800002a8:	0af48a63          	beq	s1,a5,8000035c <consoleintr+0x104>
    if(c != 0 && cons.e-cons.r < INPUT_BUF_SIZE){
    800002ac:	00010717          	auipc	a4,0x10
    800002b0:	a5470713          	addi	a4,a4,-1452 # 8000fd00 <cons>
    800002b4:	0a072783          	lw	a5,160(a4)
    800002b8:	09872703          	lw	a4,152(a4)
    800002bc:	9f99                	subw	a5,a5,a4
    800002be:	07f00713          	li	a4,127
    800002c2:	fcf765e3          	bltu	a4,a5,8000028c <consoleintr+0x34>
      c = (c == '\r') ? '\n' : c;
    800002c6:	47b5                	li	a5,13
    800002c8:	0cf48163          	beq	s1,a5,8000038a <consoleintr+0x132>
      consputc(c);
    800002cc:	8526                	mv	a0,s1
    800002ce:	f59ff0ef          	jal	ra,80000226 <consputc>
      cons.buf[cons.e++ % INPUT_BUF_SIZE] = c;
    800002d2:	00010797          	auipc	a5,0x10
    800002d6:	a2e78793          	addi	a5,a5,-1490 # 8000fd00 <cons>
    800002da:	0a07a683          	lw	a3,160(a5)
    800002de:	0016871b          	addiw	a4,a3,1
    800002e2:	0007061b          	sext.w	a2,a4
    800002e6:	0ae7a023          	sw	a4,160(a5)
    800002ea:	07f6f693          	andi	a3,a3,127
    800002ee:	97b6                	add	a5,a5,a3
    800002f0:	00978c23          	sb	s1,24(a5)
      if(c == '\n' || c == C('D') || cons.e-cons.r == INPUT_BUF_SIZE){
    800002f4:	47a9                	li	a5,10
    800002f6:	0af48f63          	beq	s1,a5,800003b4 <consoleintr+0x15c>
    800002fa:	4791                	li	a5,4
    800002fc:	0af48c63          	beq	s1,a5,800003b4 <consoleintr+0x15c>
    80000300:	00010797          	auipc	a5,0x10
    80000304:	a987a783          	lw	a5,-1384(a5) # 8000fd98 <cons+0x98>
    80000308:	9f1d                	subw	a4,a4,a5
    8000030a:	08000793          	li	a5,128
    8000030e:	f6f71fe3          	bne	a4,a5,8000028c <consoleintr+0x34>
    80000312:	a04d                	j	800003b4 <consoleintr+0x15c>
    while(cons.e != cons.w &&
    80000314:	00010717          	auipc	a4,0x10
    80000318:	9ec70713          	addi	a4,a4,-1556 # 8000fd00 <cons>
    8000031c:	0a072783          	lw	a5,160(a4)
    80000320:	09c72703          	lw	a4,156(a4)
          cons.buf[(cons.e-1) % INPUT_BUF_SIZE] != '\n'){
    80000324:	00010497          	auipc	s1,0x10
    80000328:	9dc48493          	addi	s1,s1,-1572 # 8000fd00 <cons>
    while(cons.e != cons.w &&
    8000032c:	4929                	li	s2,10
    8000032e:	f4f70fe3          	beq	a4,a5,8000028c <consoleintr+0x34>
          cons.buf[(cons.e-1) % INPUT_BUF_SIZE] != '\n'){
    80000332:	37fd                	addiw	a5,a5,-1
    80000334:	07f7f713          	andi	a4,a5,127
    80000338:	9726                	add	a4,a4,s1
    while(cons.e != cons.w &&
    8000033a:	01874703          	lbu	a4,24(a4)
    8000033e:	f52707e3          	beq	a4,s2,8000028c <consoleintr+0x34>
      cons.e--;
    80000342:	0af4a023          	sw	a5,160(s1)
      consputc(BACKSPACE);
    80000346:	10000513          	li	a0,256
    8000034a:	eddff0ef          	jal	ra,80000226 <consputc>
    while(cons.e != cons.w &&
    8000034e:	0a04a783          	lw	a5,160(s1)
    80000352:	09c4a703          	lw	a4,156(s1)
    80000356:	fcf71ee3          	bne	a4,a5,80000332 <consoleintr+0xda>
    8000035a:	bf0d                	j	8000028c <consoleintr+0x34>
    if(cons.e != cons.w){
    8000035c:	00010717          	auipc	a4,0x10
    80000360:	9a470713          	addi	a4,a4,-1628 # 8000fd00 <cons>
    80000364:	0a072783          	lw	a5,160(a4)
    80000368:	09c72703          	lw	a4,156(a4)
    8000036c:	f2f700e3          	beq	a4,a5,8000028c <consoleintr+0x34>
      cons.e--;
    80000370:	37fd                	addiw	a5,a5,-1
    80000372:	00010717          	auipc	a4,0x10
    80000376:	a2f72723          	sw	a5,-1490(a4) # 8000fda0 <cons+0xa0>
      consputc(BACKSPACE);
    8000037a:	10000513          	li	a0,256
    8000037e:	ea9ff0ef          	jal	ra,80000226 <consputc>
    80000382:	b729                	j	8000028c <consoleintr+0x34>
    if(c != 0 && cons.e-cons.r < INPUT_BUF_SIZE){
    80000384:	f00484e3          	beqz	s1,8000028c <consoleintr+0x34>
    80000388:	b715                	j	800002ac <consoleintr+0x54>
      consputc(c);
    8000038a:	4529                	li	a0,10
    8000038c:	e9bff0ef          	jal	ra,80000226 <consputc>
      cons.buf[cons.e++ % INPUT_BUF_SIZE] = c;
    80000390:	00010797          	auipc	a5,0x10
    80000394:	97078793          	addi	a5,a5,-1680 # 8000fd00 <cons>
    80000398:	0a07a703          	lw	a4,160(a5)
    8000039c:	0017069b          	addiw	a3,a4,1
    800003a0:	0006861b          	sext.w	a2,a3
    800003a4:	0ad7a023          	sw	a3,160(a5)
    800003a8:	07f77713          	andi	a4,a4,127
    800003ac:	97ba                	add	a5,a5,a4
    800003ae:	4729                	li	a4,10
    800003b0:	00e78c23          	sb	a4,24(a5)
        cons.w = cons.e;
    800003b4:	00010797          	auipc	a5,0x10
    800003b8:	9ec7a423          	sw	a2,-1560(a5) # 8000fd9c <cons+0x9c>
        wakeup(&cons.r);
    800003bc:	00010517          	auipc	a0,0x10
    800003c0:	9dc50513          	addi	a0,a0,-1572 # 8000fd98 <cons+0x98>
    800003c4:	2ad010ef          	jal	ra,80001e70 <wakeup>
    800003c8:	b5d1                	j	8000028c <consoleintr+0x34>

00000000800003ca <consoleinit>:

void
consoleinit(void)
{
    800003ca:	1141                	addi	sp,sp,-16
    800003cc:	e406                	sd	ra,8(sp)
    800003ce:	e022                	sd	s0,0(sp)
    800003d0:	0800                	addi	s0,sp,16
  initlock(&cons.lock, "cons");
    800003d2:	00007597          	auipc	a1,0x7
    800003d6:	c3e58593          	addi	a1,a1,-962 # 80007010 <etext+0x10>
    800003da:	00010517          	auipc	a0,0x10
    800003de:	92650513          	addi	a0,a0,-1754 # 8000fd00 <cons>
    800003e2:	738000ef          	jal	ra,80000b1a <initlock>

  uartinit();
    800003e6:	3d8000ef          	jal	ra,800007be <uartinit>

  // connect read and write system calls
  // to consoleread and consolewrite.
  devsw[CONSOLE].read = consoleread;
    800003ea:	0003c797          	auipc	a5,0x3c
    800003ee:	a5e78793          	addi	a5,a5,-1442 # 8003be48 <devsw>
    800003f2:	00000717          	auipc	a4,0x0
    800003f6:	d3870713          	addi	a4,a4,-712 # 8000012a <consoleread>
    800003fa:	eb98                	sd	a4,16(a5)
  devsw[CONSOLE].write = consolewrite;
    800003fc:	00000717          	auipc	a4,0x0
    80000400:	cd470713          	addi	a4,a4,-812 # 800000d0 <consolewrite>
    80000404:	ef98                	sd	a4,24(a5)
}
    80000406:	60a2                	ld	ra,8(sp)
    80000408:	6402                	ld	s0,0(sp)
    8000040a:	0141                	addi	sp,sp,16
    8000040c:	8082                	ret

000000008000040e <printint>:

static char digits[] = "0123456789abcdef";

static void
printint(long long xx, int base, int sign)
{
    8000040e:	7179                	addi	sp,sp,-48
    80000410:	f406                	sd	ra,40(sp)
    80000412:	f022                	sd	s0,32(sp)
    80000414:	ec26                	sd	s1,24(sp)
    80000416:	e84a                	sd	s2,16(sp)
    80000418:	1800                	addi	s0,sp,48
  char buf[16];
  int i;
  unsigned long long x;

  if(sign && (sign = (xx < 0)))
    8000041a:	c219                	beqz	a2,80000420 <printint+0x12>
    8000041c:	06054f63          	bltz	a0,8000049a <printint+0x8c>
    x = -xx;
  else
    x = xx;
    80000420:	4881                	li	a7,0
    80000422:	fd040693          	addi	a3,s0,-48

  i = 0;
    80000426:	4781                	li	a5,0
  do {
    buf[i++] = digits[x % base];
    80000428:	00007617          	auipc	a2,0x7
    8000042c:	c1060613          	addi	a2,a2,-1008 # 80007038 <digits>
    80000430:	883e                	mv	a6,a5
    80000432:	2785                	addiw	a5,a5,1
    80000434:	02b57733          	remu	a4,a0,a1
    80000438:	9732                	add	a4,a4,a2
    8000043a:	00074703          	lbu	a4,0(a4)
    8000043e:	00e68023          	sb	a4,0(a3)
  } while((x /= base) != 0);
    80000442:	872a                	mv	a4,a0
    80000444:	02b55533          	divu	a0,a0,a1
    80000448:	0685                	addi	a3,a3,1
    8000044a:	feb773e3          	bgeu	a4,a1,80000430 <printint+0x22>

  if(sign)
    8000044e:	00088b63          	beqz	a7,80000464 <printint+0x56>
    buf[i++] = '-';
    80000452:	fe040713          	addi	a4,s0,-32
    80000456:	97ba                	add	a5,a5,a4
    80000458:	02d00713          	li	a4,45
    8000045c:	fee78823          	sb	a4,-16(a5)
    80000460:	0028079b          	addiw	a5,a6,2

  while(--i >= 0)
    80000464:	02f05563          	blez	a5,8000048e <printint+0x80>
    80000468:	fd040713          	addi	a4,s0,-48
    8000046c:	00f704b3          	add	s1,a4,a5
    80000470:	fff70913          	addi	s2,a4,-1
    80000474:	993e                	add	s2,s2,a5
    80000476:	37fd                	addiw	a5,a5,-1
    80000478:	1782                	slli	a5,a5,0x20
    8000047a:	9381                	srli	a5,a5,0x20
    8000047c:	40f90933          	sub	s2,s2,a5
    consputc(buf[i]);
    80000480:	fff4c503          	lbu	a0,-1(s1)
    80000484:	da3ff0ef          	jal	ra,80000226 <consputc>
  while(--i >= 0)
    80000488:	14fd                	addi	s1,s1,-1
    8000048a:	ff249be3          	bne	s1,s2,80000480 <printint+0x72>
}
    8000048e:	70a2                	ld	ra,40(sp)
    80000490:	7402                	ld	s0,32(sp)
    80000492:	64e2                	ld	s1,24(sp)
    80000494:	6942                	ld	s2,16(sp)
    80000496:	6145                	addi	sp,sp,48
    80000498:	8082                	ret
    x = -xx;
    8000049a:	40a00533          	neg	a0,a0
  if(sign && (sign = (xx < 0)))
    8000049e:	4885                	li	a7,1
    x = -xx;
    800004a0:	b749                	j	80000422 <printint+0x14>

00000000800004a2 <printf>:
}

// Print to the console.
int
printf(char *fmt, ...)
{
    800004a2:	7155                	addi	sp,sp,-208
    800004a4:	e506                	sd	ra,136(sp)
    800004a6:	e122                	sd	s0,128(sp)
    800004a8:	fca6                	sd	s1,120(sp)
    800004aa:	f8ca                	sd	s2,112(sp)
    800004ac:	f4ce                	sd	s3,104(sp)
    800004ae:	f0d2                	sd	s4,96(sp)
    800004b0:	ecd6                	sd	s5,88(sp)
    800004b2:	e8da                	sd	s6,80(sp)
    800004b4:	e4de                	sd	s7,72(sp)
    800004b6:	e0e2                	sd	s8,64(sp)
    800004b8:	fc66                	sd	s9,56(sp)
    800004ba:	f86a                	sd	s10,48(sp)
    800004bc:	f46e                	sd	s11,40(sp)
    800004be:	0900                	addi	s0,sp,144
    800004c0:	8a2a                	mv	s4,a0
    800004c2:	e40c                	sd	a1,8(s0)
    800004c4:	e810                	sd	a2,16(s0)
    800004c6:	ec14                	sd	a3,24(s0)
    800004c8:	f018                	sd	a4,32(s0)
    800004ca:	f41c                	sd	a5,40(s0)
    800004cc:	03043823          	sd	a6,48(s0)
    800004d0:	03143c23          	sd	a7,56(s0)
  va_list ap;
  int i, cx, c0, c1, c2, locking;
  char *s;

  locking = pr.locking;
    800004d4:	00010797          	auipc	a5,0x10
    800004d8:	8ec7a783          	lw	a5,-1812(a5) # 8000fdc0 <pr+0x18>
    800004dc:	f6f43c23          	sd	a5,-136(s0)
  if(locking)
    800004e0:	eb9d                	bnez	a5,80000516 <printf+0x74>
    acquire(&pr.lock);

  va_start(ap, fmt);
    800004e2:	00840793          	addi	a5,s0,8
    800004e6:	f8f43423          	sd	a5,-120(s0)
  for(i = 0; (cx = fmt[i] & 0xff) != 0; i++){
    800004ea:	00054503          	lbu	a0,0(a0)
    800004ee:	24050463          	beqz	a0,80000736 <printf+0x294>
    800004f2:	4981                	li	s3,0
    if(cx != '%'){
    800004f4:	02500a93          	li	s5,37
    i++;
    c0 = fmt[i+0] & 0xff;
    c1 = c2 = 0;
    if(c0) c1 = fmt[i+1] & 0xff;
    if(c1) c2 = fmt[i+2] & 0xff;
    if(c0 == 'd'){
    800004f8:	06400b13          	li	s6,100
      printint(va_arg(ap, int), 10, 1);
    } else if(c0 == 'l' && c1 == 'd'){
    800004fc:	06c00c13          	li	s8,108
      printint(va_arg(ap, uint64), 10, 1);
      i += 1;
    } else if(c0 == 'l' && c1 == 'l' && c2 == 'd'){
      printint(va_arg(ap, uint64), 10, 1);
      i += 2;
    } else if(c0 == 'u'){
    80000500:	07500c93          	li	s9,117
      printint(va_arg(ap, uint64), 10, 0);
      i += 1;
    } else if(c0 == 'l' && c1 == 'l' && c2 == 'u'){
      printint(va_arg(ap, uint64), 10, 0);
      i += 2;
    } else if(c0 == 'x'){
    80000504:	07800d13          	li	s10,120
      printint(va_arg(ap, uint64), 16, 0);
      i += 1;
    } else if(c0 == 'l' && c1 == 'l' && c2 == 'x'){
      printint(va_arg(ap, uint64), 16, 0);
      i += 2;
    } else if(c0 == 'p'){
    80000508:	07000d93          	li	s11,112
    consputc(digits[x >> (sizeof(uint64) * 8 - 4)]);
    8000050c:	00007b97          	auipc	s7,0x7
    80000510:	b2cb8b93          	addi	s7,s7,-1236 # 80007038 <digits>
    80000514:	a081                	j	80000554 <printf+0xb2>
    acquire(&pr.lock);
    80000516:	00010517          	auipc	a0,0x10
    8000051a:	89250513          	addi	a0,a0,-1902 # 8000fda8 <pr>
    8000051e:	67c000ef          	jal	ra,80000b9a <acquire>
  va_start(ap, fmt);
    80000522:	00840793          	addi	a5,s0,8
    80000526:	f8f43423          	sd	a5,-120(s0)
  for(i = 0; (cx = fmt[i] & 0xff) != 0; i++){
    8000052a:	000a4503          	lbu	a0,0(s4)
    8000052e:	f171                	bnez	a0,800004f2 <printf+0x50>
#endif
  }
  va_end(ap);

  if(locking)
    release(&pr.lock);
    80000530:	00010517          	auipc	a0,0x10
    80000534:	87850513          	addi	a0,a0,-1928 # 8000fda8 <pr>
    80000538:	6fa000ef          	jal	ra,80000c32 <release>
    8000053c:	aaed                	j	80000736 <printf+0x294>
      consputc(cx);
    8000053e:	ce9ff0ef          	jal	ra,80000226 <consputc>
      continue;
    80000542:	84ce                	mv	s1,s3
  for(i = 0; (cx = fmt[i] & 0xff) != 0; i++){
    80000544:	0014899b          	addiw	s3,s1,1
    80000548:	013a07b3          	add	a5,s4,s3
    8000054c:	0007c503          	lbu	a0,0(a5)
    80000550:	1c050f63          	beqz	a0,8000072e <printf+0x28c>
    if(cx != '%'){
    80000554:	ff5515e3          	bne	a0,s5,8000053e <printf+0x9c>
    i++;
    80000558:	0019849b          	addiw	s1,s3,1
    c0 = fmt[i+0] & 0xff;
    8000055c:	009a07b3          	add	a5,s4,s1
    80000560:	0007c903          	lbu	s2,0(a5)
    if(c0) c1 = fmt[i+1] & 0xff;
    80000564:	1c090563          	beqz	s2,8000072e <printf+0x28c>
    80000568:	0017c783          	lbu	a5,1(a5)
    c1 = c2 = 0;
    8000056c:	86be                	mv	a3,a5
    if(c1) c2 = fmt[i+2] & 0xff;
    8000056e:	c789                	beqz	a5,80000578 <printf+0xd6>
    80000570:	009a0733          	add	a4,s4,s1
    80000574:	00274683          	lbu	a3,2(a4)
    if(c0 == 'd'){
    80000578:	03690463          	beq	s2,s6,800005a0 <printf+0xfe>
    } else if(c0 == 'l' && c1 == 'd'){
    8000057c:	03890e63          	beq	s2,s8,800005b8 <printf+0x116>
    } else if(c0 == 'u'){
    80000580:	0b990d63          	beq	s2,s9,8000063a <printf+0x198>
    } else if(c0 == 'x'){
    80000584:	11a90363          	beq	s2,s10,8000068a <printf+0x1e8>
    } else if(c0 == 'p'){
    80000588:	13b90b63          	beq	s2,s11,800006be <printf+0x21c>
    } else if(c0 == 's'){
    8000058c:	07300793          	li	a5,115
    80000590:	16f90363          	beq	s2,a5,800006f6 <printf+0x254>
    } else if(c0 == '%'){
    80000594:	03591c63          	bne	s2,s5,800005cc <printf+0x12a>
      consputc('%');
    80000598:	8556                	mv	a0,s5
    8000059a:	c8dff0ef          	jal	ra,80000226 <consputc>
    8000059e:	b75d                	j	80000544 <printf+0xa2>
      printint(va_arg(ap, int), 10, 1);
    800005a0:	f8843783          	ld	a5,-120(s0)
    800005a4:	00878713          	addi	a4,a5,8
    800005a8:	f8e43423          	sd	a4,-120(s0)
    800005ac:	4605                	li	a2,1
    800005ae:	45a9                	li	a1,10
    800005b0:	4388                	lw	a0,0(a5)
    800005b2:	e5dff0ef          	jal	ra,8000040e <printint>
    800005b6:	b779                	j	80000544 <printf+0xa2>
    } else if(c0 == 'l' && c1 == 'd'){
    800005b8:	03678163          	beq	a5,s6,800005da <printf+0x138>
    } else if(c0 == 'l' && c1 == 'l' && c2 == 'd'){
    800005bc:	03878d63          	beq	a5,s8,800005f6 <printf+0x154>
    } else if(c0 == 'l' && c1 == 'u'){
    800005c0:	09978963          	beq	a5,s9,80000652 <printf+0x1b0>
    } else if(c0 == 'l' && c1 == 'l' && c2 == 'u'){
    800005c4:	03878b63          	beq	a5,s8,800005fa <printf+0x158>
    } else if(c0 == 'l' && c1 == 'x'){
    800005c8:	0da78d63          	beq	a5,s10,800006a2 <printf+0x200>
      consputc('%');
    800005cc:	8556                	mv	a0,s5
    800005ce:	c59ff0ef          	jal	ra,80000226 <consputc>
      consputc(c0);
    800005d2:	854a                	mv	a0,s2
    800005d4:	c53ff0ef          	jal	ra,80000226 <consputc>
    800005d8:	b7b5                	j	80000544 <printf+0xa2>
      printint(va_arg(ap, uint64), 10, 1);
    800005da:	f8843783          	ld	a5,-120(s0)
    800005de:	00878713          	addi	a4,a5,8
    800005e2:	f8e43423          	sd	a4,-120(s0)
    800005e6:	4605                	li	a2,1
    800005e8:	45a9                	li	a1,10
    800005ea:	6388                	ld	a0,0(a5)
    800005ec:	e23ff0ef          	jal	ra,8000040e <printint>
      i += 1;
    800005f0:	0029849b          	addiw	s1,s3,2
    800005f4:	bf81                	j	80000544 <printf+0xa2>
    } else if(c0 == 'l' && c1 == 'l' && c2 == 'd'){
    800005f6:	03668463          	beq	a3,s6,8000061e <printf+0x17c>
    } else if(c0 == 'l' && c1 == 'l' && c2 == 'u'){
    800005fa:	07968a63          	beq	a3,s9,8000066e <printf+0x1cc>
    } else if(c0 == 'l' && c1 == 'l' && c2 == 'x'){
    800005fe:	fda697e3          	bne	a3,s10,800005cc <printf+0x12a>
      printint(va_arg(ap, uint64), 16, 0);
    80000602:	f8843783          	ld	a5,-120(s0)
    80000606:	00878713          	addi	a4,a5,8
    8000060a:	f8e43423          	sd	a4,-120(s0)
    8000060e:	4601                	li	a2,0
    80000610:	45c1                	li	a1,16
    80000612:	6388                	ld	a0,0(a5)
    80000614:	dfbff0ef          	jal	ra,8000040e <printint>
      i += 2;
    80000618:	0039849b          	addiw	s1,s3,3
    8000061c:	b725                	j	80000544 <printf+0xa2>
      printint(va_arg(ap, uint64), 10, 1);
    8000061e:	f8843783          	ld	a5,-120(s0)
    80000622:	00878713          	addi	a4,a5,8
    80000626:	f8e43423          	sd	a4,-120(s0)
    8000062a:	4605                	li	a2,1
    8000062c:	45a9                	li	a1,10
    8000062e:	6388                	ld	a0,0(a5)
    80000630:	ddfff0ef          	jal	ra,8000040e <printint>
      i += 2;
    80000634:	0039849b          	addiw	s1,s3,3
    80000638:	b731                	j	80000544 <printf+0xa2>
      printint(va_arg(ap, int), 10, 0);
    8000063a:	f8843783          	ld	a5,-120(s0)
    8000063e:	00878713          	addi	a4,a5,8
    80000642:	f8e43423          	sd	a4,-120(s0)
    80000646:	4601                	li	a2,0
    80000648:	45a9                	li	a1,10
    8000064a:	4388                	lw	a0,0(a5)
    8000064c:	dc3ff0ef          	jal	ra,8000040e <printint>
    80000650:	bdd5                	j	80000544 <printf+0xa2>
      printint(va_arg(ap, uint64), 10, 0);
    80000652:	f8843783          	ld	a5,-120(s0)
    80000656:	00878713          	addi	a4,a5,8
    8000065a:	f8e43423          	sd	a4,-120(s0)
    8000065e:	4601                	li	a2,0
    80000660:	45a9                	li	a1,10
    80000662:	6388                	ld	a0,0(a5)
    80000664:	dabff0ef          	jal	ra,8000040e <printint>
      i += 1;
    80000668:	0029849b          	addiw	s1,s3,2
    8000066c:	bde1                	j	80000544 <printf+0xa2>
      printint(va_arg(ap, uint64), 10, 0);
    8000066e:	f8843783          	ld	a5,-120(s0)
    80000672:	00878713          	addi	a4,a5,8
    80000676:	f8e43423          	sd	a4,-120(s0)
    8000067a:	4601                	li	a2,0
    8000067c:	45a9                	li	a1,10
    8000067e:	6388                	ld	a0,0(a5)
    80000680:	d8fff0ef          	jal	ra,8000040e <printint>
      i += 2;
    80000684:	0039849b          	addiw	s1,s3,3
    80000688:	bd75                	j	80000544 <printf+0xa2>
      printint(va_arg(ap, int), 16, 0);
    8000068a:	f8843783          	ld	a5,-120(s0)
    8000068e:	00878713          	addi	a4,a5,8
    80000692:	f8e43423          	sd	a4,-120(s0)
    80000696:	4601                	li	a2,0
    80000698:	45c1                	li	a1,16
    8000069a:	4388                	lw	a0,0(a5)
    8000069c:	d73ff0ef          	jal	ra,8000040e <printint>
    800006a0:	b555                	j	80000544 <printf+0xa2>
      printint(va_arg(ap, uint64), 16, 0);
    800006a2:	f8843783          	ld	a5,-120(s0)
    800006a6:	00878713          	addi	a4,a5,8
    800006aa:	f8e43423          	sd	a4,-120(s0)
    800006ae:	4601                	li	a2,0
    800006b0:	45c1                	li	a1,16
    800006b2:	6388                	ld	a0,0(a5)
    800006b4:	d5bff0ef          	jal	ra,8000040e <printint>
      i += 1;
    800006b8:	0029849b          	addiw	s1,s3,2
    800006bc:	b561                	j	80000544 <printf+0xa2>
      printptr(va_arg(ap, uint64));
    800006be:	f8843783          	ld	a5,-120(s0)
    800006c2:	00878713          	addi	a4,a5,8
    800006c6:	f8e43423          	sd	a4,-120(s0)
    800006ca:	0007b983          	ld	s3,0(a5)
  consputc('0');
    800006ce:	03000513          	li	a0,48
    800006d2:	b55ff0ef          	jal	ra,80000226 <consputc>
  consputc('x');
    800006d6:	856a                	mv	a0,s10
    800006d8:	b4fff0ef          	jal	ra,80000226 <consputc>
    800006dc:	4941                	li	s2,16
    consputc(digits[x >> (sizeof(uint64) * 8 - 4)]);
    800006de:	03c9d793          	srli	a5,s3,0x3c
    800006e2:	97de                	add	a5,a5,s7
    800006e4:	0007c503          	lbu	a0,0(a5)
    800006e8:	b3fff0ef          	jal	ra,80000226 <consputc>
  for (i = 0; i < (sizeof(uint64) * 2); i++, x <<= 4)
    800006ec:	0992                	slli	s3,s3,0x4
    800006ee:	397d                	addiw	s2,s2,-1
    800006f0:	fe0917e3          	bnez	s2,800006de <printf+0x23c>
    800006f4:	bd81                	j	80000544 <printf+0xa2>
      if((s = va_arg(ap, char*)) == 0)
    800006f6:	f8843783          	ld	a5,-120(s0)
    800006fa:	00878713          	addi	a4,a5,8
    800006fe:	f8e43423          	sd	a4,-120(s0)
    80000702:	0007b903          	ld	s2,0(a5)
    80000706:	00090d63          	beqz	s2,80000720 <printf+0x27e>
      for(; *s; s++)
    8000070a:	00094503          	lbu	a0,0(s2)
    8000070e:	e2050be3          	beqz	a0,80000544 <printf+0xa2>
        consputc(*s);
    80000712:	b15ff0ef          	jal	ra,80000226 <consputc>
      for(; *s; s++)
    80000716:	0905                	addi	s2,s2,1
    80000718:	00094503          	lbu	a0,0(s2)
    8000071c:	f97d                	bnez	a0,80000712 <printf+0x270>
    8000071e:	b51d                	j	80000544 <printf+0xa2>
        s = "(null)";
    80000720:	00007917          	auipc	s2,0x7
    80000724:	8f890913          	addi	s2,s2,-1800 # 80007018 <etext+0x18>
      for(; *s; s++)
    80000728:	02800513          	li	a0,40
    8000072c:	b7dd                	j	80000712 <printf+0x270>
  if(locking)
    8000072e:	f7843783          	ld	a5,-136(s0)
    80000732:	de079fe3          	bnez	a5,80000530 <printf+0x8e>

  return 0;
}
    80000736:	4501                	li	a0,0
    80000738:	60aa                	ld	ra,136(sp)
    8000073a:	640a                	ld	s0,128(sp)
    8000073c:	74e6                	ld	s1,120(sp)
    8000073e:	7946                	ld	s2,112(sp)
    80000740:	79a6                	ld	s3,104(sp)
    80000742:	7a06                	ld	s4,96(sp)
    80000744:	6ae6                	ld	s5,88(sp)
    80000746:	6b46                	ld	s6,80(sp)
    80000748:	6ba6                	ld	s7,72(sp)
    8000074a:	6c06                	ld	s8,64(sp)
    8000074c:	7ce2                	ld	s9,56(sp)
    8000074e:	7d42                	ld	s10,48(sp)
    80000750:	7da2                	ld	s11,40(sp)
    80000752:	6169                	addi	sp,sp,208
    80000754:	8082                	ret

0000000080000756 <panic>:

void
panic(char *s)
{
    80000756:	1101                	addi	sp,sp,-32
    80000758:	ec06                	sd	ra,24(sp)
    8000075a:	e822                	sd	s0,16(sp)
    8000075c:	e426                	sd	s1,8(sp)
    8000075e:	1000                	addi	s0,sp,32
    80000760:	84aa                	mv	s1,a0
  pr.locking = 0;
    80000762:	0000f797          	auipc	a5,0xf
    80000766:	6407af23          	sw	zero,1630(a5) # 8000fdc0 <pr+0x18>
  printf("panic: ");
    8000076a:	00007517          	auipc	a0,0x7
    8000076e:	8b650513          	addi	a0,a0,-1866 # 80007020 <etext+0x20>
    80000772:	d31ff0ef          	jal	ra,800004a2 <printf>
  printf("%s\n", s);
    80000776:	85a6                	mv	a1,s1
    80000778:	00007517          	auipc	a0,0x7
    8000077c:	8b050513          	addi	a0,a0,-1872 # 80007028 <etext+0x28>
    80000780:	d23ff0ef          	jal	ra,800004a2 <printf>
  panicked = 1; // freeze uart output from other CPUs
    80000784:	4785                	li	a5,1
    80000786:	00007717          	auipc	a4,0x7
    8000078a:	52f72d23          	sw	a5,1338(a4) # 80007cc0 <panicked>
  for(;;)
    8000078e:	a001                	j	8000078e <panic+0x38>

0000000080000790 <printfinit>:
    ;
}

void
printfinit(void)
{
    80000790:	1101                	addi	sp,sp,-32
    80000792:	ec06                	sd	ra,24(sp)
    80000794:	e822                	sd	s0,16(sp)
    80000796:	e426                	sd	s1,8(sp)
    80000798:	1000                	addi	s0,sp,32
  initlock(&pr.lock, "pr");
    8000079a:	0000f497          	auipc	s1,0xf
    8000079e:	60e48493          	addi	s1,s1,1550 # 8000fda8 <pr>
    800007a2:	00007597          	auipc	a1,0x7
    800007a6:	88e58593          	addi	a1,a1,-1906 # 80007030 <etext+0x30>
    800007aa:	8526                	mv	a0,s1
    800007ac:	36e000ef          	jal	ra,80000b1a <initlock>
  pr.locking = 1;
    800007b0:	4785                	li	a5,1
    800007b2:	cc9c                	sw	a5,24(s1)
}
    800007b4:	60e2                	ld	ra,24(sp)
    800007b6:	6442                	ld	s0,16(sp)
    800007b8:	64a2                	ld	s1,8(sp)
    800007ba:	6105                	addi	sp,sp,32
    800007bc:	8082                	ret

00000000800007be <uartinit>:

void uartstart();

void
uartinit(void)
{
    800007be:	1141                	addi	sp,sp,-16
    800007c0:	e406                	sd	ra,8(sp)
    800007c2:	e022                	sd	s0,0(sp)
    800007c4:	0800                	addi	s0,sp,16
  // disable interrupts.
  WriteReg(IER, 0x00);
    800007c6:	100007b7          	lui	a5,0x10000
    800007ca:	000780a3          	sb	zero,1(a5) # 10000001 <_entry-0x6fffffff>

  // special mode to set baud rate.
  WriteReg(LCR, LCR_BAUD_LATCH);
    800007ce:	f8000713          	li	a4,-128
    800007d2:	00e781a3          	sb	a4,3(a5)

  // LSB for baud rate of 38.4K.
  WriteReg(0, 0x03);
    800007d6:	470d                	li	a4,3
    800007d8:	00e78023          	sb	a4,0(a5)

  // MSB for baud rate of 38.4K.
  WriteReg(1, 0x00);
    800007dc:	000780a3          	sb	zero,1(a5)

  // leave set-baud mode,
  // and set word length to 8 bits, no parity.
  WriteReg(LCR, LCR_EIGHT_BITS);
    800007e0:	00e781a3          	sb	a4,3(a5)

  // reset and enable FIFOs.
  WriteReg(FCR, FCR_FIFO_ENABLE | FCR_FIFO_CLEAR);
    800007e4:	469d                	li	a3,7
    800007e6:	00d78123          	sb	a3,2(a5)

  // enable transmit and receive interrupts.
  WriteReg(IER, IER_TX_ENABLE | IER_RX_ENABLE);
    800007ea:	00e780a3          	sb	a4,1(a5)

  initlock(&uart_tx_lock, "uart");
    800007ee:	00007597          	auipc	a1,0x7
    800007f2:	86258593          	addi	a1,a1,-1950 # 80007050 <digits+0x18>
    800007f6:	0000f517          	auipc	a0,0xf
    800007fa:	5d250513          	addi	a0,a0,1490 # 8000fdc8 <uart_tx_lock>
    800007fe:	31c000ef          	jal	ra,80000b1a <initlock>
}
    80000802:	60a2                	ld	ra,8(sp)
    80000804:	6402                	ld	s0,0(sp)
    80000806:	0141                	addi	sp,sp,16
    80000808:	8082                	ret

000000008000080a <uartputc_sync>:
// use interrupts, for use by kernel printf() and
// to echo characters. it spins waiting for the uart's
// output register to be empty.
void
uartputc_sync(int c)
{
    8000080a:	1101                	addi	sp,sp,-32
    8000080c:	ec06                	sd	ra,24(sp)
    8000080e:	e822                	sd	s0,16(sp)
    80000810:	e426                	sd	s1,8(sp)
    80000812:	1000                	addi	s0,sp,32
    80000814:	84aa                	mv	s1,a0
  push_off();
    80000816:	344000ef          	jal	ra,80000b5a <push_off>

  if(panicked){
    8000081a:	00007797          	auipc	a5,0x7
    8000081e:	4a67a783          	lw	a5,1190(a5) # 80007cc0 <panicked>
    for(;;)
      ;
  }

  // wait for Transmit Holding Empty to be set in LSR.
  while((ReadReg(LSR) & LSR_TX_IDLE) == 0)
    80000822:	10000737          	lui	a4,0x10000
  if(panicked){
    80000826:	c391                	beqz	a5,8000082a <uartputc_sync+0x20>
    for(;;)
    80000828:	a001                	j	80000828 <uartputc_sync+0x1e>
  while((ReadReg(LSR) & LSR_TX_IDLE) == 0)
    8000082a:	00574783          	lbu	a5,5(a4) # 10000005 <_entry-0x6ffffffb>
    8000082e:	0207f793          	andi	a5,a5,32
    80000832:	dfe5                	beqz	a5,8000082a <uartputc_sync+0x20>
    ;
  WriteReg(THR, c);
    80000834:	0ff4f513          	andi	a0,s1,255
    80000838:	100007b7          	lui	a5,0x10000
    8000083c:	00a78023          	sb	a0,0(a5) # 10000000 <_entry-0x70000000>

  pop_off();
    80000840:	39e000ef          	jal	ra,80000bde <pop_off>
}
    80000844:	60e2                	ld	ra,24(sp)
    80000846:	6442                	ld	s0,16(sp)
    80000848:	64a2                	ld	s1,8(sp)
    8000084a:	6105                	addi	sp,sp,32
    8000084c:	8082                	ret

000000008000084e <uartstart>:
// called from both the top- and bottom-half.
void
uartstart()
{
  while(1){
    if(uart_tx_w == uart_tx_r){
    8000084e:	00007797          	auipc	a5,0x7
    80000852:	47a7b783          	ld	a5,1146(a5) # 80007cc8 <uart_tx_r>
    80000856:	00007717          	auipc	a4,0x7
    8000085a:	47a73703          	ld	a4,1146(a4) # 80007cd0 <uart_tx_w>
    8000085e:	06f70c63          	beq	a4,a5,800008d6 <uartstart+0x88>
{
    80000862:	7139                	addi	sp,sp,-64
    80000864:	fc06                	sd	ra,56(sp)
    80000866:	f822                	sd	s0,48(sp)
    80000868:	f426                	sd	s1,40(sp)
    8000086a:	f04a                	sd	s2,32(sp)
    8000086c:	ec4e                	sd	s3,24(sp)
    8000086e:	e852                	sd	s4,16(sp)
    80000870:	e456                	sd	s5,8(sp)
    80000872:	0080                	addi	s0,sp,64
      // transmit buffer is empty.
      ReadReg(ISR);
      return;
    }
    
    if((ReadReg(LSR) & LSR_TX_IDLE) == 0){
    80000874:	10000937          	lui	s2,0x10000
      // so we cannot give it another byte.
      // it will interrupt when it's ready for a new byte.
      return;
    }
    
    int c = uart_tx_buf[uart_tx_r % UART_TX_BUF_SIZE];
    80000878:	0000fa17          	auipc	s4,0xf
    8000087c:	550a0a13          	addi	s4,s4,1360 # 8000fdc8 <uart_tx_lock>
    uart_tx_r += 1;
    80000880:	00007497          	auipc	s1,0x7
    80000884:	44848493          	addi	s1,s1,1096 # 80007cc8 <uart_tx_r>
    if(uart_tx_w == uart_tx_r){
    80000888:	00007997          	auipc	s3,0x7
    8000088c:	44898993          	addi	s3,s3,1096 # 80007cd0 <uart_tx_w>
    if((ReadReg(LSR) & LSR_TX_IDLE) == 0){
    80000890:	00594703          	lbu	a4,5(s2) # 10000005 <_entry-0x6ffffffb>
    80000894:	02077713          	andi	a4,a4,32
    80000898:	c715                	beqz	a4,800008c4 <uartstart+0x76>
    int c = uart_tx_buf[uart_tx_r % UART_TX_BUF_SIZE];
    8000089a:	01f7f713          	andi	a4,a5,31
    8000089e:	9752                	add	a4,a4,s4
    800008a0:	01874a83          	lbu	s5,24(a4)
    uart_tx_r += 1;
    800008a4:	0785                	addi	a5,a5,1
    800008a6:	e09c                	sd	a5,0(s1)
    
    // maybe uartputc() is waiting for space in the buffer.
    wakeup(&uart_tx_r);
    800008a8:	8526                	mv	a0,s1
    800008aa:	5c6010ef          	jal	ra,80001e70 <wakeup>
    
    WriteReg(THR, c);
    800008ae:	01590023          	sb	s5,0(s2)
    if(uart_tx_w == uart_tx_r){
    800008b2:	609c                	ld	a5,0(s1)
    800008b4:	0009b703          	ld	a4,0(s3)
    800008b8:	fcf71ce3          	bne	a4,a5,80000890 <uartstart+0x42>
      ReadReg(ISR);
    800008bc:	100007b7          	lui	a5,0x10000
    800008c0:	0027c783          	lbu	a5,2(a5) # 10000002 <_entry-0x6ffffffe>
  }
}
    800008c4:	70e2                	ld	ra,56(sp)
    800008c6:	7442                	ld	s0,48(sp)
    800008c8:	74a2                	ld	s1,40(sp)
    800008ca:	7902                	ld	s2,32(sp)
    800008cc:	69e2                	ld	s3,24(sp)
    800008ce:	6a42                	ld	s4,16(sp)
    800008d0:	6aa2                	ld	s5,8(sp)
    800008d2:	6121                	addi	sp,sp,64
    800008d4:	8082                	ret
      ReadReg(ISR);
    800008d6:	100007b7          	lui	a5,0x10000
    800008da:	0027c783          	lbu	a5,2(a5) # 10000002 <_entry-0x6ffffffe>
      return;
    800008de:	8082                	ret

00000000800008e0 <uartputc>:
{
    800008e0:	7179                	addi	sp,sp,-48
    800008e2:	f406                	sd	ra,40(sp)
    800008e4:	f022                	sd	s0,32(sp)
    800008e6:	ec26                	sd	s1,24(sp)
    800008e8:	e84a                	sd	s2,16(sp)
    800008ea:	e44e                	sd	s3,8(sp)
    800008ec:	e052                	sd	s4,0(sp)
    800008ee:	1800                	addi	s0,sp,48
    800008f0:	8a2a                	mv	s4,a0
  acquire(&uart_tx_lock);
    800008f2:	0000f517          	auipc	a0,0xf
    800008f6:	4d650513          	addi	a0,a0,1238 # 8000fdc8 <uart_tx_lock>
    800008fa:	2a0000ef          	jal	ra,80000b9a <acquire>
  if(panicked){
    800008fe:	00007797          	auipc	a5,0x7
    80000902:	3c27a783          	lw	a5,962(a5) # 80007cc0 <panicked>
    80000906:	efbd                	bnez	a5,80000984 <uartputc+0xa4>
  while(uart_tx_w == uart_tx_r + UART_TX_BUF_SIZE){
    80000908:	00007717          	auipc	a4,0x7
    8000090c:	3c873703          	ld	a4,968(a4) # 80007cd0 <uart_tx_w>
    80000910:	00007797          	auipc	a5,0x7
    80000914:	3b87b783          	ld	a5,952(a5) # 80007cc8 <uart_tx_r>
    80000918:	02078793          	addi	a5,a5,32
    sleep(&uart_tx_r, &uart_tx_lock);
    8000091c:	0000f997          	auipc	s3,0xf
    80000920:	4ac98993          	addi	s3,s3,1196 # 8000fdc8 <uart_tx_lock>
    80000924:	00007497          	auipc	s1,0x7
    80000928:	3a448493          	addi	s1,s1,932 # 80007cc8 <uart_tx_r>
  while(uart_tx_w == uart_tx_r + UART_TX_BUF_SIZE){
    8000092c:	00007917          	auipc	s2,0x7
    80000930:	3a490913          	addi	s2,s2,932 # 80007cd0 <uart_tx_w>
    80000934:	00e79d63          	bne	a5,a4,8000094e <uartputc+0x6e>
    sleep(&uart_tx_r, &uart_tx_lock);
    80000938:	85ce                	mv	a1,s3
    8000093a:	8526                	mv	a0,s1
    8000093c:	4e8010ef          	jal	ra,80001e24 <sleep>
  while(uart_tx_w == uart_tx_r + UART_TX_BUF_SIZE){
    80000940:	00093703          	ld	a4,0(s2)
    80000944:	609c                	ld	a5,0(s1)
    80000946:	02078793          	addi	a5,a5,32
    8000094a:	fee787e3          	beq	a5,a4,80000938 <uartputc+0x58>
  uart_tx_buf[uart_tx_w % UART_TX_BUF_SIZE] = c;
    8000094e:	0000f497          	auipc	s1,0xf
    80000952:	47a48493          	addi	s1,s1,1146 # 8000fdc8 <uart_tx_lock>
    80000956:	01f77793          	andi	a5,a4,31
    8000095a:	97a6                	add	a5,a5,s1
    8000095c:	01478c23          	sb	s4,24(a5)
  uart_tx_w += 1;
    80000960:	0705                	addi	a4,a4,1
    80000962:	00007797          	auipc	a5,0x7
    80000966:	36e7b723          	sd	a4,878(a5) # 80007cd0 <uart_tx_w>
  uartstart();
    8000096a:	ee5ff0ef          	jal	ra,8000084e <uartstart>
  release(&uart_tx_lock);
    8000096e:	8526                	mv	a0,s1
    80000970:	2c2000ef          	jal	ra,80000c32 <release>
}
    80000974:	70a2                	ld	ra,40(sp)
    80000976:	7402                	ld	s0,32(sp)
    80000978:	64e2                	ld	s1,24(sp)
    8000097a:	6942                	ld	s2,16(sp)
    8000097c:	69a2                	ld	s3,8(sp)
    8000097e:	6a02                	ld	s4,0(sp)
    80000980:	6145                	addi	sp,sp,48
    80000982:	8082                	ret
    for(;;)
    80000984:	a001                	j	80000984 <uartputc+0xa4>

0000000080000986 <uartgetc>:

// read one input character from the UART.
// return -1 if none is waiting.
int
uartgetc(void)
{
    80000986:	1141                	addi	sp,sp,-16
    80000988:	e422                	sd	s0,8(sp)
    8000098a:	0800                	addi	s0,sp,16
  if(ReadReg(LSR) & 0x01){
    8000098c:	100007b7          	lui	a5,0x10000
    80000990:	0057c783          	lbu	a5,5(a5) # 10000005 <_entry-0x6ffffffb>
    80000994:	8b85                	andi	a5,a5,1
    80000996:	cb91                	beqz	a5,800009aa <uartgetc+0x24>
    // input data is ready.
    return ReadReg(RHR);
    80000998:	100007b7          	lui	a5,0x10000
    8000099c:	0007c503          	lbu	a0,0(a5) # 10000000 <_entry-0x70000000>
    800009a0:	0ff57513          	andi	a0,a0,255
  } else {
    return -1;
  }
}
    800009a4:	6422                	ld	s0,8(sp)
    800009a6:	0141                	addi	sp,sp,16
    800009a8:	8082                	ret
    return -1;
    800009aa:	557d                	li	a0,-1
    800009ac:	bfe5                	j	800009a4 <uartgetc+0x1e>

00000000800009ae <uartintr>:
// handle a uart interrupt, raised because input has
// arrived, or the uart is ready for more output, or
// both. called from devintr().
void
uartintr(void)
{
    800009ae:	1101                	addi	sp,sp,-32
    800009b0:	ec06                	sd	ra,24(sp)
    800009b2:	e822                	sd	s0,16(sp)
    800009b4:	e426                	sd	s1,8(sp)
    800009b6:	1000                	addi	s0,sp,32
  // read and process incoming characters.
  while(1){
    int c = uartgetc();
    if(c == -1)
    800009b8:	54fd                	li	s1,-1
    800009ba:	a019                	j	800009c0 <uartintr+0x12>
      break;
    consoleintr(c);
    800009bc:	89dff0ef          	jal	ra,80000258 <consoleintr>
    int c = uartgetc();
    800009c0:	fc7ff0ef          	jal	ra,80000986 <uartgetc>
    if(c == -1)
    800009c4:	fe951ce3          	bne	a0,s1,800009bc <uartintr+0xe>
  }

  // send buffered characters.
  acquire(&uart_tx_lock);
    800009c8:	0000f497          	auipc	s1,0xf
    800009cc:	40048493          	addi	s1,s1,1024 # 8000fdc8 <uart_tx_lock>
    800009d0:	8526                	mv	a0,s1
    800009d2:	1c8000ef          	jal	ra,80000b9a <acquire>
  uartstart();
    800009d6:	e79ff0ef          	jal	ra,8000084e <uartstart>
  release(&uart_tx_lock);
    800009da:	8526                	mv	a0,s1
    800009dc:	256000ef          	jal	ra,80000c32 <release>
}
    800009e0:	60e2                	ld	ra,24(sp)
    800009e2:	6442                	ld	s0,16(sp)
    800009e4:	64a2                	ld	s1,8(sp)
    800009e6:	6105                	addi	sp,sp,32
    800009e8:	8082                	ret

00000000800009ea <kfree>:
// which normally should have been returned by a
// call to kalloc().  (The exception is when
// initializing the allocator; see kinit above.)
void
kfree(void *pa)
{
    800009ea:	1101                	addi	sp,sp,-32
    800009ec:	ec06                	sd	ra,24(sp)
    800009ee:	e822                	sd	s0,16(sp)
    800009f0:	e426                	sd	s1,8(sp)
    800009f2:	e04a                	sd	s2,0(sp)
    800009f4:	1000                	addi	s0,sp,32
  struct run *r;

  if(((uint64)pa % PGSIZE) != 0 || (char*)pa < end || (uint64)pa >= PHYSTOP)
    800009f6:	03451793          	slli	a5,a0,0x34
    800009fa:	e7a9                	bnez	a5,80000a44 <kfree+0x5a>
    800009fc:	84aa                	mv	s1,a0
    800009fe:	00048797          	auipc	a5,0x48
    80000a02:	b2278793          	addi	a5,a5,-1246 # 80048520 <end>
    80000a06:	02f56f63          	bltu	a0,a5,80000a44 <kfree+0x5a>
    80000a0a:	47c5                	li	a5,17
    80000a0c:	07ee                	slli	a5,a5,0x1b
    80000a0e:	02f57b63          	bgeu	a0,a5,80000a44 <kfree+0x5a>
    panic("kfree");

  // Fill with junk to catch dangling refs.
  memset(pa, 1, PGSIZE);
    80000a12:	6605                	lui	a2,0x1
    80000a14:	4585                	li	a1,1
    80000a16:	258000ef          	jal	ra,80000c6e <memset>

  r = (struct run*)pa;

  acquire(&kmem.lock);
    80000a1a:	0000f917          	auipc	s2,0xf
    80000a1e:	3e690913          	addi	s2,s2,998 # 8000fe00 <kmem>
    80000a22:	854a                	mv	a0,s2
    80000a24:	176000ef          	jal	ra,80000b9a <acquire>
  r->next = kmem.freelist;
    80000a28:	01893783          	ld	a5,24(s2)
    80000a2c:	e09c                	sd	a5,0(s1)
  kmem.freelist = r;
    80000a2e:	00993c23          	sd	s1,24(s2)
  release(&kmem.lock);
    80000a32:	854a                	mv	a0,s2
    80000a34:	1fe000ef          	jal	ra,80000c32 <release>
}
    80000a38:	60e2                	ld	ra,24(sp)
    80000a3a:	6442                	ld	s0,16(sp)
    80000a3c:	64a2                	ld	s1,8(sp)
    80000a3e:	6902                	ld	s2,0(sp)
    80000a40:	6105                	addi	sp,sp,32
    80000a42:	8082                	ret
    panic("kfree");
    80000a44:	00006517          	auipc	a0,0x6
    80000a48:	61450513          	addi	a0,a0,1556 # 80007058 <digits+0x20>
    80000a4c:	d0bff0ef          	jal	ra,80000756 <panic>

0000000080000a50 <freerange>:
{
    80000a50:	7179                	addi	sp,sp,-48
    80000a52:	f406                	sd	ra,40(sp)
    80000a54:	f022                	sd	s0,32(sp)
    80000a56:	ec26                	sd	s1,24(sp)
    80000a58:	e84a                	sd	s2,16(sp)
    80000a5a:	e44e                	sd	s3,8(sp)
    80000a5c:	e052                	sd	s4,0(sp)
    80000a5e:	1800                	addi	s0,sp,48
  p = (char*)PGROUNDUP((uint64)pa_start);
    80000a60:	6785                	lui	a5,0x1
    80000a62:	fff78493          	addi	s1,a5,-1 # fff <_entry-0x7ffff001>
    80000a66:	94aa                	add	s1,s1,a0
    80000a68:	757d                	lui	a0,0xfffff
    80000a6a:	8ce9                	and	s1,s1,a0
  for(; p + PGSIZE <= (char*)pa_end; p += PGSIZE)
    80000a6c:	94be                	add	s1,s1,a5
    80000a6e:	0095ec63          	bltu	a1,s1,80000a86 <freerange+0x36>
    80000a72:	892e                	mv	s2,a1
    kfree(p);
    80000a74:	7a7d                	lui	s4,0xfffff
  for(; p + PGSIZE <= (char*)pa_end; p += PGSIZE)
    80000a76:	6985                	lui	s3,0x1
    kfree(p);
    80000a78:	01448533          	add	a0,s1,s4
    80000a7c:	f6fff0ef          	jal	ra,800009ea <kfree>
  for(; p + PGSIZE <= (char*)pa_end; p += PGSIZE)
    80000a80:	94ce                	add	s1,s1,s3
    80000a82:	fe997be3          	bgeu	s2,s1,80000a78 <freerange+0x28>
}
    80000a86:	70a2                	ld	ra,40(sp)
    80000a88:	7402                	ld	s0,32(sp)
    80000a8a:	64e2                	ld	s1,24(sp)
    80000a8c:	6942                	ld	s2,16(sp)
    80000a8e:	69a2                	ld	s3,8(sp)
    80000a90:	6a02                	ld	s4,0(sp)
    80000a92:	6145                	addi	sp,sp,48
    80000a94:	8082                	ret

0000000080000a96 <kinit>:
{
    80000a96:	1141                	addi	sp,sp,-16
    80000a98:	e406                	sd	ra,8(sp)
    80000a9a:	e022                	sd	s0,0(sp)
    80000a9c:	0800                	addi	s0,sp,16
  initlock(&kmem.lock, "kmem");
    80000a9e:	00006597          	auipc	a1,0x6
    80000aa2:	5c258593          	addi	a1,a1,1474 # 80007060 <digits+0x28>
    80000aa6:	0000f517          	auipc	a0,0xf
    80000aaa:	35a50513          	addi	a0,a0,858 # 8000fe00 <kmem>
    80000aae:	06c000ef          	jal	ra,80000b1a <initlock>
  freerange(end, (void*)PHYSTOP);
    80000ab2:	45c5                	li	a1,17
    80000ab4:	05ee                	slli	a1,a1,0x1b
    80000ab6:	00048517          	auipc	a0,0x48
    80000aba:	a6a50513          	addi	a0,a0,-1430 # 80048520 <end>
    80000abe:	f93ff0ef          	jal	ra,80000a50 <freerange>
}
    80000ac2:	60a2                	ld	ra,8(sp)
    80000ac4:	6402                	ld	s0,0(sp)
    80000ac6:	0141                	addi	sp,sp,16
    80000ac8:	8082                	ret

0000000080000aca <kalloc>:
// Allocate one 4096-byte page of physical memory.
// Returns a pointer that the kernel can use.
// Returns 0 if the memory cannot be allocated.
void *
kalloc(void)
{
    80000aca:	1101                	addi	sp,sp,-32
    80000acc:	ec06                	sd	ra,24(sp)
    80000ace:	e822                	sd	s0,16(sp)
    80000ad0:	e426                	sd	s1,8(sp)
    80000ad2:	1000                	addi	s0,sp,32
  struct run *r;

  acquire(&kmem.lock);
    80000ad4:	0000f497          	auipc	s1,0xf
    80000ad8:	32c48493          	addi	s1,s1,812 # 8000fe00 <kmem>
    80000adc:	8526                	mv	a0,s1
    80000ade:	0bc000ef          	jal	ra,80000b9a <acquire>
  r = kmem.freelist;
    80000ae2:	6c84                	ld	s1,24(s1)
  if(r)
    80000ae4:	c485                	beqz	s1,80000b0c <kalloc+0x42>
    kmem.freelist = r->next;
    80000ae6:	609c                	ld	a5,0(s1)
    80000ae8:	0000f517          	auipc	a0,0xf
    80000aec:	31850513          	addi	a0,a0,792 # 8000fe00 <kmem>
    80000af0:	ed1c                	sd	a5,24(a0)
  release(&kmem.lock);
    80000af2:	140000ef          	jal	ra,80000c32 <release>

  if(r)
    memset((char*)r, 5, PGSIZE); // fill with junk
    80000af6:	6605                	lui	a2,0x1
    80000af8:	4595                	li	a1,5
    80000afa:	8526                	mv	a0,s1
    80000afc:	172000ef          	jal	ra,80000c6e <memset>
  return (void*)r;
}
    80000b00:	8526                	mv	a0,s1
    80000b02:	60e2                	ld	ra,24(sp)
    80000b04:	6442                	ld	s0,16(sp)
    80000b06:	64a2                	ld	s1,8(sp)
    80000b08:	6105                	addi	sp,sp,32
    80000b0a:	8082                	ret
  release(&kmem.lock);
    80000b0c:	0000f517          	auipc	a0,0xf
    80000b10:	2f450513          	addi	a0,a0,756 # 8000fe00 <kmem>
    80000b14:	11e000ef          	jal	ra,80000c32 <release>
  if(r)
    80000b18:	b7e5                	j	80000b00 <kalloc+0x36>

0000000080000b1a <initlock>:
#include "proc.h"
#include "defs.h"

void
initlock(struct spinlock *lk, char *name)
{
    80000b1a:	1141                	addi	sp,sp,-16
    80000b1c:	e422                	sd	s0,8(sp)
    80000b1e:	0800                	addi	s0,sp,16
  lk->name = name;
    80000b20:	e50c                	sd	a1,8(a0)
  lk->locked = 0;
    80000b22:	00052023          	sw	zero,0(a0)
  lk->cpu = 0;
    80000b26:	00053823          	sd	zero,16(a0)
}
    80000b2a:	6422                	ld	s0,8(sp)
    80000b2c:	0141                	addi	sp,sp,16
    80000b2e:	8082                	ret

0000000080000b30 <holding>:
// Interrupts must be off.
int
holding(struct spinlock *lk)
{
  int r;
  r = (lk->locked && lk->cpu == mycpu());
    80000b30:	411c                	lw	a5,0(a0)
    80000b32:	e399                	bnez	a5,80000b38 <holding+0x8>
    80000b34:	4501                	li	a0,0
  return r;
}
    80000b36:	8082                	ret
{
    80000b38:	1101                	addi	sp,sp,-32
    80000b3a:	ec06                	sd	ra,24(sp)
    80000b3c:	e822                	sd	s0,16(sp)
    80000b3e:	e426                	sd	s1,8(sp)
    80000b40:	1000                	addi	s0,sp,32
  r = (lk->locked && lk->cpu == mycpu());
    80000b42:	6904                	ld	s1,16(a0)
    80000b44:	4f9000ef          	jal	ra,8000183c <mycpu>
    80000b48:	40a48533          	sub	a0,s1,a0
    80000b4c:	00153513          	seqz	a0,a0
}
    80000b50:	60e2                	ld	ra,24(sp)
    80000b52:	6442                	ld	s0,16(sp)
    80000b54:	64a2                	ld	s1,8(sp)
    80000b56:	6105                	addi	sp,sp,32
    80000b58:	8082                	ret

0000000080000b5a <push_off>:
// it takes two pop_off()s to undo two push_off()s.  Also, if interrupts
// are initially off, then push_off, pop_off leaves them off.

void
push_off(void)
{
    80000b5a:	1101                	addi	sp,sp,-32
    80000b5c:	ec06                	sd	ra,24(sp)
    80000b5e:	e822                	sd	s0,16(sp)
    80000b60:	e426                	sd	s1,8(sp)
    80000b62:	1000                	addi	s0,sp,32
  asm volatile("csrr %0, sstatus" : "=r" (x) );
    80000b64:	100024f3          	csrr	s1,sstatus
    80000b68:	100027f3          	csrr	a5,sstatus
  w_sstatus(r_sstatus() & ~SSTATUS_SIE);
    80000b6c:	9bf5                	andi	a5,a5,-3
  asm volatile("csrw sstatus, %0" : : "r" (x));
    80000b6e:	10079073          	csrw	sstatus,a5
  int old = intr_get();

  intr_off();
  if(mycpu()->noff == 0)
    80000b72:	4cb000ef          	jal	ra,8000183c <mycpu>
    80000b76:	5d3c                	lw	a5,120(a0)
    80000b78:	cb99                	beqz	a5,80000b8e <push_off+0x34>
    mycpu()->intena = old;
  mycpu()->noff += 1;
    80000b7a:	4c3000ef          	jal	ra,8000183c <mycpu>
    80000b7e:	5d3c                	lw	a5,120(a0)
    80000b80:	2785                	addiw	a5,a5,1
    80000b82:	dd3c                	sw	a5,120(a0)
}
    80000b84:	60e2                	ld	ra,24(sp)
    80000b86:	6442                	ld	s0,16(sp)
    80000b88:	64a2                	ld	s1,8(sp)
    80000b8a:	6105                	addi	sp,sp,32
    80000b8c:	8082                	ret
    mycpu()->intena = old;
    80000b8e:	4af000ef          	jal	ra,8000183c <mycpu>
  return (x & SSTATUS_SIE) != 0;
    80000b92:	8085                	srli	s1,s1,0x1
    80000b94:	8885                	andi	s1,s1,1
    80000b96:	dd64                	sw	s1,124(a0)
    80000b98:	b7cd                	j	80000b7a <push_off+0x20>

0000000080000b9a <acquire>:
{
    80000b9a:	1101                	addi	sp,sp,-32
    80000b9c:	ec06                	sd	ra,24(sp)
    80000b9e:	e822                	sd	s0,16(sp)
    80000ba0:	e426                	sd	s1,8(sp)
    80000ba2:	1000                	addi	s0,sp,32
    80000ba4:	84aa                	mv	s1,a0
  push_off(); // disable interrupts to avoid deadlock.
    80000ba6:	fb5ff0ef          	jal	ra,80000b5a <push_off>
  if(holding(lk))
    80000baa:	8526                	mv	a0,s1
    80000bac:	f85ff0ef          	jal	ra,80000b30 <holding>
  while(__sync_lock_test_and_set(&lk->locked, 1) != 0)
    80000bb0:	4705                	li	a4,1
  if(holding(lk))
    80000bb2:	e105                	bnez	a0,80000bd2 <acquire+0x38>
  while(__sync_lock_test_and_set(&lk->locked, 1) != 0)
    80000bb4:	87ba                	mv	a5,a4
    80000bb6:	0cf4a7af          	amoswap.w.aq	a5,a5,(s1)
    80000bba:	2781                	sext.w	a5,a5
    80000bbc:	ffe5                	bnez	a5,80000bb4 <acquire+0x1a>
  __sync_synchronize();
    80000bbe:	0ff0000f          	fence
  lk->cpu = mycpu();
    80000bc2:	47b000ef          	jal	ra,8000183c <mycpu>
    80000bc6:	e888                	sd	a0,16(s1)
}
    80000bc8:	60e2                	ld	ra,24(sp)
    80000bca:	6442                	ld	s0,16(sp)
    80000bcc:	64a2                	ld	s1,8(sp)
    80000bce:	6105                	addi	sp,sp,32
    80000bd0:	8082                	ret
    panic("acquire");
    80000bd2:	00006517          	auipc	a0,0x6
    80000bd6:	49650513          	addi	a0,a0,1174 # 80007068 <digits+0x30>
    80000bda:	b7dff0ef          	jal	ra,80000756 <panic>

0000000080000bde <pop_off>:

void
pop_off(void)
{
    80000bde:	1141                	addi	sp,sp,-16
    80000be0:	e406                	sd	ra,8(sp)
    80000be2:	e022                	sd	s0,0(sp)
    80000be4:	0800                	addi	s0,sp,16
  struct cpu *c = mycpu();
    80000be6:	457000ef          	jal	ra,8000183c <mycpu>
  asm volatile("csrr %0, sstatus" : "=r" (x) );
    80000bea:	100027f3          	csrr	a5,sstatus
  return (x & SSTATUS_SIE) != 0;
    80000bee:	8b89                	andi	a5,a5,2
  if(intr_get())
    80000bf0:	e78d                	bnez	a5,80000c1a <pop_off+0x3c>
    panic("pop_off - interruptible");
  if(c->noff < 1)
    80000bf2:	5d3c                	lw	a5,120(a0)
    80000bf4:	02f05963          	blez	a5,80000c26 <pop_off+0x48>
    panic("pop_off");
  c->noff -= 1;
    80000bf8:	37fd                	addiw	a5,a5,-1
    80000bfa:	0007871b          	sext.w	a4,a5
    80000bfe:	dd3c                	sw	a5,120(a0)
  if(c->noff == 0 && c->intena)
    80000c00:	eb09                	bnez	a4,80000c12 <pop_off+0x34>
    80000c02:	5d7c                	lw	a5,124(a0)
    80000c04:	c799                	beqz	a5,80000c12 <pop_off+0x34>
  asm volatile("csrr %0, sstatus" : "=r" (x) );
    80000c06:	100027f3          	csrr	a5,sstatus
  w_sstatus(r_sstatus() | SSTATUS_SIE);
    80000c0a:	0027e793          	ori	a5,a5,2
  asm volatile("csrw sstatus, %0" : : "r" (x));
    80000c0e:	10079073          	csrw	sstatus,a5
    intr_on();
}
    80000c12:	60a2                	ld	ra,8(sp)
    80000c14:	6402                	ld	s0,0(sp)
    80000c16:	0141                	addi	sp,sp,16
    80000c18:	8082                	ret
    panic("pop_off - interruptible");
    80000c1a:	00006517          	auipc	a0,0x6
    80000c1e:	45650513          	addi	a0,a0,1110 # 80007070 <digits+0x38>
    80000c22:	b35ff0ef          	jal	ra,80000756 <panic>
    panic("pop_off");
    80000c26:	00006517          	auipc	a0,0x6
    80000c2a:	46250513          	addi	a0,a0,1122 # 80007088 <digits+0x50>
    80000c2e:	b29ff0ef          	jal	ra,80000756 <panic>

0000000080000c32 <release>:
{
    80000c32:	1101                	addi	sp,sp,-32
    80000c34:	ec06                	sd	ra,24(sp)
    80000c36:	e822                	sd	s0,16(sp)
    80000c38:	e426                	sd	s1,8(sp)
    80000c3a:	1000                	addi	s0,sp,32
    80000c3c:	84aa                	mv	s1,a0
  if(!holding(lk))
    80000c3e:	ef3ff0ef          	jal	ra,80000b30 <holding>
    80000c42:	c105                	beqz	a0,80000c62 <release+0x30>
  lk->cpu = 0;
    80000c44:	0004b823          	sd	zero,16(s1)
  __sync_synchronize();
    80000c48:	0ff0000f          	fence
  __sync_lock_release(&lk->locked);
    80000c4c:	0f50000f          	fence	iorw,ow
    80000c50:	0804a02f          	amoswap.w	zero,zero,(s1)
  pop_off();
    80000c54:	f8bff0ef          	jal	ra,80000bde <pop_off>
}
    80000c58:	60e2                	ld	ra,24(sp)
    80000c5a:	6442                	ld	s0,16(sp)
    80000c5c:	64a2                	ld	s1,8(sp)
    80000c5e:	6105                	addi	sp,sp,32
    80000c60:	8082                	ret
    panic("release");
    80000c62:	00006517          	auipc	a0,0x6
    80000c66:	42e50513          	addi	a0,a0,1070 # 80007090 <digits+0x58>
    80000c6a:	aedff0ef          	jal	ra,80000756 <panic>

0000000080000c6e <memset>:
#include "types.h"

void*
memset(void *dst, int c, uint n)
{
    80000c6e:	1141                	addi	sp,sp,-16
    80000c70:	e422                	sd	s0,8(sp)
    80000c72:	0800                	addi	s0,sp,16
  char *cdst = (char *) dst;
  int i;
  for(i = 0; i < n; i++){
    80000c74:	ca19                	beqz	a2,80000c8a <memset+0x1c>
    80000c76:	87aa                	mv	a5,a0
    80000c78:	1602                	slli	a2,a2,0x20
    80000c7a:	9201                	srli	a2,a2,0x20
    80000c7c:	00a60733          	add	a4,a2,a0
    cdst[i] = c;
    80000c80:	00b78023          	sb	a1,0(a5)
  for(i = 0; i < n; i++){
    80000c84:	0785                	addi	a5,a5,1
    80000c86:	fee79de3          	bne	a5,a4,80000c80 <memset+0x12>
  }
  return dst;
}
    80000c8a:	6422                	ld	s0,8(sp)
    80000c8c:	0141                	addi	sp,sp,16
    80000c8e:	8082                	ret

0000000080000c90 <memcmp>:

int
memcmp(const void *v1, const void *v2, uint n)
{
    80000c90:	1141                	addi	sp,sp,-16
    80000c92:	e422                	sd	s0,8(sp)
    80000c94:	0800                	addi	s0,sp,16
  const uchar *s1, *s2;

  s1 = v1;
  s2 = v2;
  while(n-- > 0){
    80000c96:	ca05                	beqz	a2,80000cc6 <memcmp+0x36>
    80000c98:	fff6069b          	addiw	a3,a2,-1
    80000c9c:	1682                	slli	a3,a3,0x20
    80000c9e:	9281                	srli	a3,a3,0x20
    80000ca0:	0685                	addi	a3,a3,1
    80000ca2:	96aa                	add	a3,a3,a0
    if(*s1 != *s2)
    80000ca4:	00054783          	lbu	a5,0(a0)
    80000ca8:	0005c703          	lbu	a4,0(a1)
    80000cac:	00e79863          	bne	a5,a4,80000cbc <memcmp+0x2c>
      return *s1 - *s2;
    s1++, s2++;
    80000cb0:	0505                	addi	a0,a0,1
    80000cb2:	0585                	addi	a1,a1,1
  while(n-- > 0){
    80000cb4:	fed518e3          	bne	a0,a3,80000ca4 <memcmp+0x14>
  }

  return 0;
    80000cb8:	4501                	li	a0,0
    80000cba:	a019                	j	80000cc0 <memcmp+0x30>
      return *s1 - *s2;
    80000cbc:	40e7853b          	subw	a0,a5,a4
}
    80000cc0:	6422                	ld	s0,8(sp)
    80000cc2:	0141                	addi	sp,sp,16
    80000cc4:	8082                	ret
  return 0;
    80000cc6:	4501                	li	a0,0
    80000cc8:	bfe5                	j	80000cc0 <memcmp+0x30>

0000000080000cca <memmove>:

void*
memmove(void *dst, const void *src, uint n)
{
    80000cca:	1141                	addi	sp,sp,-16
    80000ccc:	e422                	sd	s0,8(sp)
    80000cce:	0800                	addi	s0,sp,16
  const char *s;
  char *d;

  if(n == 0)
    80000cd0:	c205                	beqz	a2,80000cf0 <memmove+0x26>
    return dst;
  
  s = src;
  d = dst;
  if(s < d && s + n > d){
    80000cd2:	02a5e263          	bltu	a1,a0,80000cf6 <memmove+0x2c>
    s += n;
    d += n;
    while(n-- > 0)
      *--d = *--s;
  } else
    while(n-- > 0)
    80000cd6:	1602                	slli	a2,a2,0x20
    80000cd8:	9201                	srli	a2,a2,0x20
    80000cda:	00c587b3          	add	a5,a1,a2
{
    80000cde:	872a                	mv	a4,a0
      *d++ = *s++;
    80000ce0:	0585                	addi	a1,a1,1
    80000ce2:	0705                	addi	a4,a4,1
    80000ce4:	fff5c683          	lbu	a3,-1(a1)
    80000ce8:	fed70fa3          	sb	a3,-1(a4)
    while(n-- > 0)
    80000cec:	fef59ae3          	bne	a1,a5,80000ce0 <memmove+0x16>

  return dst;
}
    80000cf0:	6422                	ld	s0,8(sp)
    80000cf2:	0141                	addi	sp,sp,16
    80000cf4:	8082                	ret
  if(s < d && s + n > d){
    80000cf6:	02061693          	slli	a3,a2,0x20
    80000cfa:	9281                	srli	a3,a3,0x20
    80000cfc:	00d58733          	add	a4,a1,a3
    80000d00:	fce57be3          	bgeu	a0,a4,80000cd6 <memmove+0xc>
    d += n;
    80000d04:	96aa                	add	a3,a3,a0
    while(n-- > 0)
    80000d06:	fff6079b          	addiw	a5,a2,-1
    80000d0a:	1782                	slli	a5,a5,0x20
    80000d0c:	9381                	srli	a5,a5,0x20
    80000d0e:	fff7c793          	not	a5,a5
    80000d12:	97ba                	add	a5,a5,a4
      *--d = *--s;
    80000d14:	177d                	addi	a4,a4,-1
    80000d16:	16fd                	addi	a3,a3,-1
    80000d18:	00074603          	lbu	a2,0(a4)
    80000d1c:	00c68023          	sb	a2,0(a3)
    while(n-- > 0)
    80000d20:	fee79ae3          	bne	a5,a4,80000d14 <memmove+0x4a>
    80000d24:	b7f1                	j	80000cf0 <memmove+0x26>

0000000080000d26 <memcpy>:

// memcpy exists to placate GCC.  Use memmove.
void*
memcpy(void *dst, const void *src, uint n)
{
    80000d26:	1141                	addi	sp,sp,-16
    80000d28:	e406                	sd	ra,8(sp)
    80000d2a:	e022                	sd	s0,0(sp)
    80000d2c:	0800                	addi	s0,sp,16
  return memmove(dst, src, n);
    80000d2e:	f9dff0ef          	jal	ra,80000cca <memmove>
}
    80000d32:	60a2                	ld	ra,8(sp)
    80000d34:	6402                	ld	s0,0(sp)
    80000d36:	0141                	addi	sp,sp,16
    80000d38:	8082                	ret

0000000080000d3a <strncmp>:

int
strncmp(const char *p, const char *q, uint n)
{
    80000d3a:	1141                	addi	sp,sp,-16
    80000d3c:	e422                	sd	s0,8(sp)
    80000d3e:	0800                	addi	s0,sp,16
  while(n > 0 && *p && *p == *q)
    80000d40:	ce11                	beqz	a2,80000d5c <strncmp+0x22>
    80000d42:	00054783          	lbu	a5,0(a0)
    80000d46:	cf89                	beqz	a5,80000d60 <strncmp+0x26>
    80000d48:	0005c703          	lbu	a4,0(a1)
    80000d4c:	00f71a63          	bne	a4,a5,80000d60 <strncmp+0x26>
    n--, p++, q++;
    80000d50:	367d                	addiw	a2,a2,-1
    80000d52:	0505                	addi	a0,a0,1
    80000d54:	0585                	addi	a1,a1,1
  while(n > 0 && *p && *p == *q)
    80000d56:	f675                	bnez	a2,80000d42 <strncmp+0x8>
  if(n == 0)
    return 0;
    80000d58:	4501                	li	a0,0
    80000d5a:	a809                	j	80000d6c <strncmp+0x32>
    80000d5c:	4501                	li	a0,0
    80000d5e:	a039                	j	80000d6c <strncmp+0x32>
  if(n == 0)
    80000d60:	ca09                	beqz	a2,80000d72 <strncmp+0x38>
  return (uchar)*p - (uchar)*q;
    80000d62:	00054503          	lbu	a0,0(a0)
    80000d66:	0005c783          	lbu	a5,0(a1)
    80000d6a:	9d1d                	subw	a0,a0,a5
}
    80000d6c:	6422                	ld	s0,8(sp)
    80000d6e:	0141                	addi	sp,sp,16
    80000d70:	8082                	ret
    return 0;
    80000d72:	4501                	li	a0,0
    80000d74:	bfe5                	j	80000d6c <strncmp+0x32>

0000000080000d76 <strncpy>:

char*
strncpy(char *s, const char *t, int n)
{
    80000d76:	1141                	addi	sp,sp,-16
    80000d78:	e422                	sd	s0,8(sp)
    80000d7a:	0800                	addi	s0,sp,16
  char *os;

  os = s;
  while(n-- > 0 && (*s++ = *t++) != 0)
    80000d7c:	872a                	mv	a4,a0
    80000d7e:	8832                	mv	a6,a2
    80000d80:	367d                	addiw	a2,a2,-1
    80000d82:	01005963          	blez	a6,80000d94 <strncpy+0x1e>
    80000d86:	0705                	addi	a4,a4,1
    80000d88:	0005c783          	lbu	a5,0(a1)
    80000d8c:	fef70fa3          	sb	a5,-1(a4)
    80000d90:	0585                	addi	a1,a1,1
    80000d92:	f7f5                	bnez	a5,80000d7e <strncpy+0x8>
    ;
  while(n-- > 0)
    80000d94:	86ba                	mv	a3,a4
    80000d96:	00c05c63          	blez	a2,80000dae <strncpy+0x38>
    *s++ = 0;
    80000d9a:	0685                	addi	a3,a3,1
    80000d9c:	fe068fa3          	sb	zero,-1(a3)
  while(n-- > 0)
    80000da0:	fff6c793          	not	a5,a3
    80000da4:	9fb9                	addw	a5,a5,a4
    80000da6:	010787bb          	addw	a5,a5,a6
    80000daa:	fef048e3          	bgtz	a5,80000d9a <strncpy+0x24>
  return os;
}
    80000dae:	6422                	ld	s0,8(sp)
    80000db0:	0141                	addi	sp,sp,16
    80000db2:	8082                	ret

0000000080000db4 <safestrcpy>:

// Like strncpy but guaranteed to NUL-terminate.
char*
safestrcpy(char *s, const char *t, int n)
{
    80000db4:	1141                	addi	sp,sp,-16
    80000db6:	e422                	sd	s0,8(sp)
    80000db8:	0800                	addi	s0,sp,16
  char *os;

  os = s;
  if(n <= 0)
    80000dba:	02c05363          	blez	a2,80000de0 <safestrcpy+0x2c>
    80000dbe:	fff6069b          	addiw	a3,a2,-1
    80000dc2:	1682                	slli	a3,a3,0x20
    80000dc4:	9281                	srli	a3,a3,0x20
    80000dc6:	96ae                	add	a3,a3,a1
    80000dc8:	87aa                	mv	a5,a0
    return os;
  while(--n > 0 && (*s++ = *t++) != 0)
    80000dca:	00d58963          	beq	a1,a3,80000ddc <safestrcpy+0x28>
    80000dce:	0585                	addi	a1,a1,1
    80000dd0:	0785                	addi	a5,a5,1
    80000dd2:	fff5c703          	lbu	a4,-1(a1)
    80000dd6:	fee78fa3          	sb	a4,-1(a5)
    80000dda:	fb65                	bnez	a4,80000dca <safestrcpy+0x16>
    ;
  *s = 0;
    80000ddc:	00078023          	sb	zero,0(a5)
  return os;
}
    80000de0:	6422                	ld	s0,8(sp)
    80000de2:	0141                	addi	sp,sp,16
    80000de4:	8082                	ret

0000000080000de6 <strlen>:

int
strlen(const char *s)
{
    80000de6:	1141                	addi	sp,sp,-16
    80000de8:	e422                	sd	s0,8(sp)
    80000dea:	0800                	addi	s0,sp,16
  int n;

  for(n = 0; s[n]; n++)
    80000dec:	00054783          	lbu	a5,0(a0)
    80000df0:	cf91                	beqz	a5,80000e0c <strlen+0x26>
    80000df2:	0505                	addi	a0,a0,1
    80000df4:	87aa                	mv	a5,a0
    80000df6:	4685                	li	a3,1
    80000df8:	9e89                	subw	a3,a3,a0
    80000dfa:	00f6853b          	addw	a0,a3,a5
    80000dfe:	0785                	addi	a5,a5,1
    80000e00:	fff7c703          	lbu	a4,-1(a5)
    80000e04:	fb7d                	bnez	a4,80000dfa <strlen+0x14>
    ;
  return n;
}
    80000e06:	6422                	ld	s0,8(sp)
    80000e08:	0141                	addi	sp,sp,16
    80000e0a:	8082                	ret
  for(n = 0; s[n]; n++)
    80000e0c:	4501                	li	a0,0
    80000e0e:	bfe5                	j	80000e06 <strlen+0x20>

0000000080000e10 <check>:
#include "debug.h"
#include "defs.h"
#include "slab.h"

void check()
{
    80000e10:	1141                	addi	sp,sp,-16
    80000e12:	e406                	sd	ra,8(sp)
    80000e14:	e022                	sd	s0,0(sp)
    80000e16:	0800                	addi	s0,sp,16
  debug("[MP2] Slab size: %lu\n", sizeof(struct slab) / sizeof(void *));
    80000e18:	165040ef          	jal	ra,8000577c <get_mode>
    80000e1c:	2501                	sext.w	a0,a0
    80000e1e:	e509                	bnez	a0,80000e28 <check+0x18>
}
    80000e20:	60a2                	ld	ra,8(sp)
    80000e22:	6402                	ld	s0,0(sp)
    80000e24:	0141                	addi	sp,sp,16
    80000e26:	8082                	ret
  debug("[MP2] Slab size: %lu\n", sizeof(struct slab) / sizeof(void *));
    80000e28:	458d                	li	a1,3
    80000e2a:	00006517          	auipc	a0,0x6
    80000e2e:	26e50513          	addi	a0,a0,622 # 80007098 <digits+0x60>
    80000e32:	e70ff0ef          	jal	ra,800004a2 <printf>
}
    80000e36:	b7ed                	j	80000e20 <check+0x10>

0000000080000e38 <main>:
volatile static int started = 0;

// start() jumps here in supervisor mode on all CPUs.
void
main()
{
    80000e38:	1141                	addi	sp,sp,-16
    80000e3a:	e406                	sd	ra,8(sp)
    80000e3c:	e022                	sd	s0,0(sp)
    80000e3e:	0800                	addi	s0,sp,16
  if(cpuid() == 0){
    80000e40:	1ed000ef          	jal	ra,8000182c <cpuid>
    virtio_disk_init(); // emulated hard disk
    userinit();      // first user process
    __sync_synchronize();
    started = 1;
  } else {
    while(started == 0)
    80000e44:	00007717          	auipc	a4,0x7
    80000e48:	e9470713          	addi	a4,a4,-364 # 80007cd8 <started>
  if(cpuid() == 0){
    80000e4c:	c51d                	beqz	a0,80000e7a <main+0x42>
    while(started == 0)
    80000e4e:	431c                	lw	a5,0(a4)
    80000e50:	2781                	sext.w	a5,a5
    80000e52:	dff5                	beqz	a5,80000e4e <main+0x16>
      ;
    __sync_synchronize();
    80000e54:	0ff0000f          	fence
    printf("hart %d starting\n", cpuid());
    80000e58:	1d5000ef          	jal	ra,8000182c <cpuid>
    80000e5c:	85aa                	mv	a1,a0
    80000e5e:	00006517          	auipc	a0,0x6
    80000e62:	26a50513          	addi	a0,a0,618 # 800070c8 <digits+0x90>
    80000e66:	e3cff0ef          	jal	ra,800004a2 <printf>
    kvminithart();    // turn on paging
    80000e6a:	084000ef          	jal	ra,80000eee <kvminithart>
    trapinithart();   // install kernel trap vector
    80000e6e:	4d6010ef          	jal	ra,80002344 <trapinithart>
    plicinithart();   // ask PLIC for device interrupts
    80000e72:	372040ef          	jal	ra,800051e4 <plicinithart>
  }

  scheduler();        
    80000e76:	615000ef          	jal	ra,80001c8a <scheduler>
    consoleinit();
    80000e7a:	d50ff0ef          	jal	ra,800003ca <consoleinit>
    printfinit();
    80000e7e:	913ff0ef          	jal	ra,80000790 <printfinit>
    printf("\n");
    80000e82:	00007517          	auipc	a0,0x7
    80000e86:	90e50513          	addi	a0,a0,-1778 # 80007790 <syscalls+0x2e8>
    80000e8a:	e18ff0ef          	jal	ra,800004a2 <printf>
    printf("xv6 kernel is booting\n");
    80000e8e:	00006517          	auipc	a0,0x6
    80000e92:	22250513          	addi	a0,a0,546 # 800070b0 <digits+0x78>
    80000e96:	e0cff0ef          	jal	ra,800004a2 <printf>
    printf("\n");
    80000e9a:	00007517          	auipc	a0,0x7
    80000e9e:	8f650513          	addi	a0,a0,-1802 # 80007790 <syscalls+0x2e8>
    80000ea2:	e00ff0ef          	jal	ra,800004a2 <printf>
    check();
    80000ea6:	f6bff0ef          	jal	ra,80000e10 <check>
    kinit();         // physical page allocator
    80000eaa:	bedff0ef          	jal	ra,80000a96 <kinit>
    kvminit();       // create kernel page table
    80000eae:	2ca000ef          	jal	ra,80001178 <kvminit>
    kvminithart();   // turn on paging
    80000eb2:	03c000ef          	jal	ra,80000eee <kvminithart>
    procinit();      // process table
    80000eb6:	0cf000ef          	jal	ra,80001784 <procinit>
    trapinit();      // trap vectors
    80000eba:	466010ef          	jal	ra,80002320 <trapinit>
    trapinithart();  // install kernel trap vector
    80000ebe:	486010ef          	jal	ra,80002344 <trapinithart>
    plicinit();      // set up interrupt controller
    80000ec2:	30c040ef          	jal	ra,800051ce <plicinit>
    plicinithart();  // ask PLIC for device interrupts
    80000ec6:	31e040ef          	jal	ra,800051e4 <plicinithart>
    binit();         // buffer cache
    80000eca:	2a5010ef          	jal	ra,8000296e <binit>
    iinit();         // inode table
    80000ece:	084020ef          	jal	ra,80002f52 <iinit>
    fileinit();      // file table
    80000ed2:	667020ef          	jal	ra,80003d38 <fileinit>
    virtio_disk_init(); // emulated hard disk
    80000ed6:	3fe040ef          	jal	ra,800052d4 <virtio_disk_init>
    userinit();      // first user process
    80000eda:	3e7000ef          	jal	ra,80001ac0 <userinit>
    __sync_synchronize();
    80000ede:	0ff0000f          	fence
    started = 1;
    80000ee2:	4785                	li	a5,1
    80000ee4:	00007717          	auipc	a4,0x7
    80000ee8:	def72a23          	sw	a5,-524(a4) # 80007cd8 <started>
    80000eec:	b769                	j	80000e76 <main+0x3e>

0000000080000eee <kvminithart>:

// Switch h/w page table register to the kernel's page table,
// and enable paging.
void
kvminithart()
{
    80000eee:	1141                	addi	sp,sp,-16
    80000ef0:	e422                	sd	s0,8(sp)
    80000ef2:	0800                	addi	s0,sp,16
// flush the TLB.
static inline void
sfence_vma()
{
  // the zero, zero means flush all TLB entries.
  asm volatile("sfence.vma zero, zero");
    80000ef4:	12000073          	sfence.vma
  // wait for any previous writes to the page table memory to finish.
  sfence_vma();

  w_satp(MAKE_SATP(kernel_pagetable));
    80000ef8:	00007797          	auipc	a5,0x7
    80000efc:	de87b783          	ld	a5,-536(a5) # 80007ce0 <kernel_pagetable>
    80000f00:	83b1                	srli	a5,a5,0xc
    80000f02:	577d                	li	a4,-1
    80000f04:	177e                	slli	a4,a4,0x3f
    80000f06:	8fd9                	or	a5,a5,a4
  asm volatile("csrw satp, %0" : : "r" (x));
    80000f08:	18079073          	csrw	satp,a5
  asm volatile("sfence.vma zero, zero");
    80000f0c:	12000073          	sfence.vma

  // flush stale entries from the TLB.
  sfence_vma();
}
    80000f10:	6422                	ld	s0,8(sp)
    80000f12:	0141                	addi	sp,sp,16
    80000f14:	8082                	ret

0000000080000f16 <walk>:
//   21..29 -- 9 bits of level-1 index.
//   12..20 -- 9 bits of level-0 index.
//    0..11 -- 12 bits of byte offset within the page.
pte_t *
walk(pagetable_t pagetable, uint64 va, int alloc)
{
    80000f16:	7139                	addi	sp,sp,-64
    80000f18:	fc06                	sd	ra,56(sp)
    80000f1a:	f822                	sd	s0,48(sp)
    80000f1c:	f426                	sd	s1,40(sp)
    80000f1e:	f04a                	sd	s2,32(sp)
    80000f20:	ec4e                	sd	s3,24(sp)
    80000f22:	e852                	sd	s4,16(sp)
    80000f24:	e456                	sd	s5,8(sp)
    80000f26:	e05a                	sd	s6,0(sp)
    80000f28:	0080                	addi	s0,sp,64
    80000f2a:	84aa                	mv	s1,a0
    80000f2c:	89ae                	mv	s3,a1
    80000f2e:	8ab2                	mv	s5,a2
  if(va >= MAXVA)
    80000f30:	57fd                	li	a5,-1
    80000f32:	83e9                	srli	a5,a5,0x1a
    80000f34:	4a79                	li	s4,30
    panic("walk");

  for(int level = 2; level > 0; level--) {
    80000f36:	4b31                	li	s6,12
  if(va >= MAXVA)
    80000f38:	02b7fc63          	bgeu	a5,a1,80000f70 <walk+0x5a>
    panic("walk");
    80000f3c:	00006517          	auipc	a0,0x6
    80000f40:	1a450513          	addi	a0,a0,420 # 800070e0 <digits+0xa8>
    80000f44:	813ff0ef          	jal	ra,80000756 <panic>
    pte_t *pte = &pagetable[PX(level, va)];
    if(*pte & PTE_V) {
      pagetable = (pagetable_t)PTE2PA(*pte);
    } else {
      if(!alloc || (pagetable = (pde_t*)kalloc()) == 0)
    80000f48:	060a8263          	beqz	s5,80000fac <walk+0x96>
    80000f4c:	b7fff0ef          	jal	ra,80000aca <kalloc>
    80000f50:	84aa                	mv	s1,a0
    80000f52:	c139                	beqz	a0,80000f98 <walk+0x82>
        return 0;
      memset(pagetable, 0, PGSIZE);
    80000f54:	6605                	lui	a2,0x1
    80000f56:	4581                	li	a1,0
    80000f58:	d17ff0ef          	jal	ra,80000c6e <memset>
      *pte = PA2PTE(pagetable) | PTE_V;
    80000f5c:	00c4d793          	srli	a5,s1,0xc
    80000f60:	07aa                	slli	a5,a5,0xa
    80000f62:	0017e793          	ori	a5,a5,1
    80000f66:	00f93023          	sd	a5,0(s2)
  for(int level = 2; level > 0; level--) {
    80000f6a:	3a5d                	addiw	s4,s4,-9
    80000f6c:	036a0063          	beq	s4,s6,80000f8c <walk+0x76>
    pte_t *pte = &pagetable[PX(level, va)];
    80000f70:	0149d933          	srl	s2,s3,s4
    80000f74:	1ff97913          	andi	s2,s2,511
    80000f78:	090e                	slli	s2,s2,0x3
    80000f7a:	9926                	add	s2,s2,s1
    if(*pte & PTE_V) {
    80000f7c:	00093483          	ld	s1,0(s2)
    80000f80:	0014f793          	andi	a5,s1,1
    80000f84:	d3f1                	beqz	a5,80000f48 <walk+0x32>
      pagetable = (pagetable_t)PTE2PA(*pte);
    80000f86:	80a9                	srli	s1,s1,0xa
    80000f88:	04b2                	slli	s1,s1,0xc
    80000f8a:	b7c5                	j	80000f6a <walk+0x54>
    }
  }
  return &pagetable[PX(0, va)];
    80000f8c:	00c9d513          	srli	a0,s3,0xc
    80000f90:	1ff57513          	andi	a0,a0,511
    80000f94:	050e                	slli	a0,a0,0x3
    80000f96:	9526                	add	a0,a0,s1
}
    80000f98:	70e2                	ld	ra,56(sp)
    80000f9a:	7442                	ld	s0,48(sp)
    80000f9c:	74a2                	ld	s1,40(sp)
    80000f9e:	7902                	ld	s2,32(sp)
    80000fa0:	69e2                	ld	s3,24(sp)
    80000fa2:	6a42                	ld	s4,16(sp)
    80000fa4:	6aa2                	ld	s5,8(sp)
    80000fa6:	6b02                	ld	s6,0(sp)
    80000fa8:	6121                	addi	sp,sp,64
    80000faa:	8082                	ret
        return 0;
    80000fac:	4501                	li	a0,0
    80000fae:	b7ed                	j	80000f98 <walk+0x82>

0000000080000fb0 <walkaddr>:
walkaddr(pagetable_t pagetable, uint64 va)
{
  pte_t *pte;
  uint64 pa;

  if(va >= MAXVA)
    80000fb0:	57fd                	li	a5,-1
    80000fb2:	83e9                	srli	a5,a5,0x1a
    80000fb4:	00b7f463          	bgeu	a5,a1,80000fbc <walkaddr+0xc>
    return 0;
    80000fb8:	4501                	li	a0,0
    return 0;
  if((*pte & PTE_U) == 0)
    return 0;
  pa = PTE2PA(*pte);
  return pa;
}
    80000fba:	8082                	ret
{
    80000fbc:	1141                	addi	sp,sp,-16
    80000fbe:	e406                	sd	ra,8(sp)
    80000fc0:	e022                	sd	s0,0(sp)
    80000fc2:	0800                	addi	s0,sp,16
  pte = walk(pagetable, va, 0);
    80000fc4:	4601                	li	a2,0
    80000fc6:	f51ff0ef          	jal	ra,80000f16 <walk>
  if(pte == 0)
    80000fca:	c105                	beqz	a0,80000fea <walkaddr+0x3a>
  if((*pte & PTE_V) == 0)
    80000fcc:	611c                	ld	a5,0(a0)
  if((*pte & PTE_U) == 0)
    80000fce:	0117f693          	andi	a3,a5,17
    80000fd2:	4745                	li	a4,17
    return 0;
    80000fd4:	4501                	li	a0,0
  if((*pte & PTE_U) == 0)
    80000fd6:	00e68663          	beq	a3,a4,80000fe2 <walkaddr+0x32>
}
    80000fda:	60a2                	ld	ra,8(sp)
    80000fdc:	6402                	ld	s0,0(sp)
    80000fde:	0141                	addi	sp,sp,16
    80000fe0:	8082                	ret
  pa = PTE2PA(*pte);
    80000fe2:	00a7d513          	srli	a0,a5,0xa
    80000fe6:	0532                	slli	a0,a0,0xc
  return pa;
    80000fe8:	bfcd                	j	80000fda <walkaddr+0x2a>
    return 0;
    80000fea:	4501                	li	a0,0
    80000fec:	b7fd                	j	80000fda <walkaddr+0x2a>

0000000080000fee <mappages>:
// va and size MUST be page-aligned.
// Returns 0 on success, -1 if walk() couldn't
// allocate a needed page-table page.
int
mappages(pagetable_t pagetable, uint64 va, uint64 size, uint64 pa, int perm)
{
    80000fee:	715d                	addi	sp,sp,-80
    80000ff0:	e486                	sd	ra,72(sp)
    80000ff2:	e0a2                	sd	s0,64(sp)
    80000ff4:	fc26                	sd	s1,56(sp)
    80000ff6:	f84a                	sd	s2,48(sp)
    80000ff8:	f44e                	sd	s3,40(sp)
    80000ffa:	f052                	sd	s4,32(sp)
    80000ffc:	ec56                	sd	s5,24(sp)
    80000ffe:	e85a                	sd	s6,16(sp)
    80001000:	e45e                	sd	s7,8(sp)
    80001002:	0880                	addi	s0,sp,80
  uint64 a, last;
  pte_t *pte;

  if((va % PGSIZE) != 0)
    80001004:	03459793          	slli	a5,a1,0x34
    80001008:	e7a9                	bnez	a5,80001052 <mappages+0x64>
    8000100a:	8aaa                	mv	s5,a0
    8000100c:	8b3a                	mv	s6,a4
    panic("mappages: va not aligned");

  if((size % PGSIZE) != 0)
    8000100e:	03461793          	slli	a5,a2,0x34
    80001012:	e7b1                	bnez	a5,8000105e <mappages+0x70>
    panic("mappages: size not aligned");

  if(size == 0)
    80001014:	ca39                	beqz	a2,8000106a <mappages+0x7c>
    panic("mappages: size");
  
  a = va;
  last = va + size - PGSIZE;
    80001016:	79fd                	lui	s3,0xfffff
    80001018:	964e                	add	a2,a2,s3
    8000101a:	00b609b3          	add	s3,a2,a1
  a = va;
    8000101e:	892e                	mv	s2,a1
    80001020:	40b68a33          	sub	s4,a3,a1
    if(*pte & PTE_V)
      panic("mappages: remap");
    *pte = PA2PTE(pa) | perm | PTE_V;
    if(a == last)
      break;
    a += PGSIZE;
    80001024:	6b85                	lui	s7,0x1
    80001026:	012a04b3          	add	s1,s4,s2
    if((pte = walk(pagetable, a, 1)) == 0)
    8000102a:	4605                	li	a2,1
    8000102c:	85ca                	mv	a1,s2
    8000102e:	8556                	mv	a0,s5
    80001030:	ee7ff0ef          	jal	ra,80000f16 <walk>
    80001034:	c539                	beqz	a0,80001082 <mappages+0x94>
    if(*pte & PTE_V)
    80001036:	611c                	ld	a5,0(a0)
    80001038:	8b85                	andi	a5,a5,1
    8000103a:	ef95                	bnez	a5,80001076 <mappages+0x88>
    *pte = PA2PTE(pa) | perm | PTE_V;
    8000103c:	80b1                	srli	s1,s1,0xc
    8000103e:	04aa                	slli	s1,s1,0xa
    80001040:	0164e4b3          	or	s1,s1,s6
    80001044:	0014e493          	ori	s1,s1,1
    80001048:	e104                	sd	s1,0(a0)
    if(a == last)
    8000104a:	05390863          	beq	s2,s3,8000109a <mappages+0xac>
    a += PGSIZE;
    8000104e:	995e                	add	s2,s2,s7
    if((pte = walk(pagetable, a, 1)) == 0)
    80001050:	bfd9                	j	80001026 <mappages+0x38>
    panic("mappages: va not aligned");
    80001052:	00006517          	auipc	a0,0x6
    80001056:	09650513          	addi	a0,a0,150 # 800070e8 <digits+0xb0>
    8000105a:	efcff0ef          	jal	ra,80000756 <panic>
    panic("mappages: size not aligned");
    8000105e:	00006517          	auipc	a0,0x6
    80001062:	0aa50513          	addi	a0,a0,170 # 80007108 <digits+0xd0>
    80001066:	ef0ff0ef          	jal	ra,80000756 <panic>
    panic("mappages: size");
    8000106a:	00006517          	auipc	a0,0x6
    8000106e:	0be50513          	addi	a0,a0,190 # 80007128 <digits+0xf0>
    80001072:	ee4ff0ef          	jal	ra,80000756 <panic>
      panic("mappages: remap");
    80001076:	00006517          	auipc	a0,0x6
    8000107a:	0c250513          	addi	a0,a0,194 # 80007138 <digits+0x100>
    8000107e:	ed8ff0ef          	jal	ra,80000756 <panic>
      return -1;
    80001082:	557d                	li	a0,-1
    pa += PGSIZE;
  }
  return 0;
}
    80001084:	60a6                	ld	ra,72(sp)
    80001086:	6406                	ld	s0,64(sp)
    80001088:	74e2                	ld	s1,56(sp)
    8000108a:	7942                	ld	s2,48(sp)
    8000108c:	79a2                	ld	s3,40(sp)
    8000108e:	7a02                	ld	s4,32(sp)
    80001090:	6ae2                	ld	s5,24(sp)
    80001092:	6b42                	ld	s6,16(sp)
    80001094:	6ba2                	ld	s7,8(sp)
    80001096:	6161                	addi	sp,sp,80
    80001098:	8082                	ret
  return 0;
    8000109a:	4501                	li	a0,0
    8000109c:	b7e5                	j	80001084 <mappages+0x96>

000000008000109e <kvmmap>:
{
    8000109e:	1141                	addi	sp,sp,-16
    800010a0:	e406                	sd	ra,8(sp)
    800010a2:	e022                	sd	s0,0(sp)
    800010a4:	0800                	addi	s0,sp,16
    800010a6:	87b6                	mv	a5,a3
  if(mappages(kpgtbl, va, sz, pa, perm) != 0)
    800010a8:	86b2                	mv	a3,a2
    800010aa:	863e                	mv	a2,a5
    800010ac:	f43ff0ef          	jal	ra,80000fee <mappages>
    800010b0:	e509                	bnez	a0,800010ba <kvmmap+0x1c>
}
    800010b2:	60a2                	ld	ra,8(sp)
    800010b4:	6402                	ld	s0,0(sp)
    800010b6:	0141                	addi	sp,sp,16
    800010b8:	8082                	ret
    panic("kvmmap");
    800010ba:	00006517          	auipc	a0,0x6
    800010be:	08e50513          	addi	a0,a0,142 # 80007148 <digits+0x110>
    800010c2:	e94ff0ef          	jal	ra,80000756 <panic>

00000000800010c6 <kvmmake>:
{
    800010c6:	1101                	addi	sp,sp,-32
    800010c8:	ec06                	sd	ra,24(sp)
    800010ca:	e822                	sd	s0,16(sp)
    800010cc:	e426                	sd	s1,8(sp)
    800010ce:	e04a                	sd	s2,0(sp)
    800010d0:	1000                	addi	s0,sp,32
  kpgtbl = (pagetable_t) kalloc();
    800010d2:	9f9ff0ef          	jal	ra,80000aca <kalloc>
    800010d6:	84aa                	mv	s1,a0
  memset(kpgtbl, 0, PGSIZE);
    800010d8:	6605                	lui	a2,0x1
    800010da:	4581                	li	a1,0
    800010dc:	b93ff0ef          	jal	ra,80000c6e <memset>
  kvmmap(kpgtbl, UART0, UART0, PGSIZE, PTE_R | PTE_W);
    800010e0:	4719                	li	a4,6
    800010e2:	6685                	lui	a3,0x1
    800010e4:	10000637          	lui	a2,0x10000
    800010e8:	100005b7          	lui	a1,0x10000
    800010ec:	8526                	mv	a0,s1
    800010ee:	fb1ff0ef          	jal	ra,8000109e <kvmmap>
  kvmmap(kpgtbl, VIRTIO0, VIRTIO0, PGSIZE, PTE_R | PTE_W);
    800010f2:	4719                	li	a4,6
    800010f4:	6685                	lui	a3,0x1
    800010f6:	10001637          	lui	a2,0x10001
    800010fa:	100015b7          	lui	a1,0x10001
    800010fe:	8526                	mv	a0,s1
    80001100:	f9fff0ef          	jal	ra,8000109e <kvmmap>
  kvmmap(kpgtbl, PLIC, PLIC, 0x4000000, PTE_R | PTE_W);
    80001104:	4719                	li	a4,6
    80001106:	040006b7          	lui	a3,0x4000
    8000110a:	0c000637          	lui	a2,0xc000
    8000110e:	0c0005b7          	lui	a1,0xc000
    80001112:	8526                	mv	a0,s1
    80001114:	f8bff0ef          	jal	ra,8000109e <kvmmap>
  kvmmap(kpgtbl, KERNBASE, KERNBASE, (uint64)etext-KERNBASE, PTE_R | PTE_X);
    80001118:	00006917          	auipc	s2,0x6
    8000111c:	ee890913          	addi	s2,s2,-280 # 80007000 <etext>
    80001120:	4729                	li	a4,10
    80001122:	80006697          	auipc	a3,0x80006
    80001126:	ede68693          	addi	a3,a3,-290 # 7000 <_entry-0x7fff9000>
    8000112a:	4605                	li	a2,1
    8000112c:	067e                	slli	a2,a2,0x1f
    8000112e:	85b2                	mv	a1,a2
    80001130:	8526                	mv	a0,s1
    80001132:	f6dff0ef          	jal	ra,8000109e <kvmmap>
  kvmmap(kpgtbl, (uint64)etext, (uint64)etext, PHYSTOP-(uint64)etext, PTE_R | PTE_W);
    80001136:	4719                	li	a4,6
    80001138:	46c5                	li	a3,17
    8000113a:	06ee                	slli	a3,a3,0x1b
    8000113c:	412686b3          	sub	a3,a3,s2
    80001140:	864a                	mv	a2,s2
    80001142:	85ca                	mv	a1,s2
    80001144:	8526                	mv	a0,s1
    80001146:	f59ff0ef          	jal	ra,8000109e <kvmmap>
  kvmmap(kpgtbl, TRAMPOLINE, (uint64)trampoline, PGSIZE, PTE_R | PTE_X);
    8000114a:	4729                	li	a4,10
    8000114c:	6685                	lui	a3,0x1
    8000114e:	00005617          	auipc	a2,0x5
    80001152:	eb260613          	addi	a2,a2,-334 # 80006000 <_trampoline>
    80001156:	040005b7          	lui	a1,0x4000
    8000115a:	15fd                	addi	a1,a1,-1
    8000115c:	05b2                	slli	a1,a1,0xc
    8000115e:	8526                	mv	a0,s1
    80001160:	f3fff0ef          	jal	ra,8000109e <kvmmap>
  proc_mapstacks(kpgtbl);
    80001164:	8526                	mv	a0,s1
    80001166:	594000ef          	jal	ra,800016fa <proc_mapstacks>
}
    8000116a:	8526                	mv	a0,s1
    8000116c:	60e2                	ld	ra,24(sp)
    8000116e:	6442                	ld	s0,16(sp)
    80001170:	64a2                	ld	s1,8(sp)
    80001172:	6902                	ld	s2,0(sp)
    80001174:	6105                	addi	sp,sp,32
    80001176:	8082                	ret

0000000080001178 <kvminit>:
{
    80001178:	1141                	addi	sp,sp,-16
    8000117a:	e406                	sd	ra,8(sp)
    8000117c:	e022                	sd	s0,0(sp)
    8000117e:	0800                	addi	s0,sp,16
  kernel_pagetable = kvmmake();
    80001180:	f47ff0ef          	jal	ra,800010c6 <kvmmake>
    80001184:	00007797          	auipc	a5,0x7
    80001188:	b4a7be23          	sd	a0,-1188(a5) # 80007ce0 <kernel_pagetable>
}
    8000118c:	60a2                	ld	ra,8(sp)
    8000118e:	6402                	ld	s0,0(sp)
    80001190:	0141                	addi	sp,sp,16
    80001192:	8082                	ret

0000000080001194 <uvmunmap>:
// Remove npages of mappings starting from va. va must be
// page-aligned. The mappings must exist.
// Optionally free the physical memory.
void
uvmunmap(pagetable_t pagetable, uint64 va, uint64 npages, int do_free)
{
    80001194:	715d                	addi	sp,sp,-80
    80001196:	e486                	sd	ra,72(sp)
    80001198:	e0a2                	sd	s0,64(sp)
    8000119a:	fc26                	sd	s1,56(sp)
    8000119c:	f84a                	sd	s2,48(sp)
    8000119e:	f44e                	sd	s3,40(sp)
    800011a0:	f052                	sd	s4,32(sp)
    800011a2:	ec56                	sd	s5,24(sp)
    800011a4:	e85a                	sd	s6,16(sp)
    800011a6:	e45e                	sd	s7,8(sp)
    800011a8:	0880                	addi	s0,sp,80
  uint64 a;
  pte_t *pte;

  if((va % PGSIZE) != 0)
    800011aa:	03459793          	slli	a5,a1,0x34
    800011ae:	e795                	bnez	a5,800011da <uvmunmap+0x46>
    800011b0:	8a2a                	mv	s4,a0
    800011b2:	892e                	mv	s2,a1
    800011b4:	8ab6                	mv	s5,a3
    panic("uvmunmap: not aligned");

  for(a = va; a < va + npages*PGSIZE; a += PGSIZE){
    800011b6:	0632                	slli	a2,a2,0xc
    800011b8:	00b609b3          	add	s3,a2,a1
    if((pte = walk(pagetable, a, 0)) == 0)
      panic("uvmunmap: walk");
    if((*pte & PTE_V) == 0)
      panic("uvmunmap: not mapped");
    if(PTE_FLAGS(*pte) == PTE_V)
    800011bc:	4b85                	li	s7,1
  for(a = va; a < va + npages*PGSIZE; a += PGSIZE){
    800011be:	6b05                	lui	s6,0x1
    800011c0:	0535ea63          	bltu	a1,s3,80001214 <uvmunmap+0x80>
      uint64 pa = PTE2PA(*pte);
      kfree((void*)pa);
    }
    *pte = 0;
  }
}
    800011c4:	60a6                	ld	ra,72(sp)
    800011c6:	6406                	ld	s0,64(sp)
    800011c8:	74e2                	ld	s1,56(sp)
    800011ca:	7942                	ld	s2,48(sp)
    800011cc:	79a2                	ld	s3,40(sp)
    800011ce:	7a02                	ld	s4,32(sp)
    800011d0:	6ae2                	ld	s5,24(sp)
    800011d2:	6b42                	ld	s6,16(sp)
    800011d4:	6ba2                	ld	s7,8(sp)
    800011d6:	6161                	addi	sp,sp,80
    800011d8:	8082                	ret
    panic("uvmunmap: not aligned");
    800011da:	00006517          	auipc	a0,0x6
    800011de:	f7650513          	addi	a0,a0,-138 # 80007150 <digits+0x118>
    800011e2:	d74ff0ef          	jal	ra,80000756 <panic>
      panic("uvmunmap: walk");
    800011e6:	00006517          	auipc	a0,0x6
    800011ea:	f8250513          	addi	a0,a0,-126 # 80007168 <digits+0x130>
    800011ee:	d68ff0ef          	jal	ra,80000756 <panic>
      panic("uvmunmap: not mapped");
    800011f2:	00006517          	auipc	a0,0x6
    800011f6:	f8650513          	addi	a0,a0,-122 # 80007178 <digits+0x140>
    800011fa:	d5cff0ef          	jal	ra,80000756 <panic>
      panic("uvmunmap: not a leaf");
    800011fe:	00006517          	auipc	a0,0x6
    80001202:	f9250513          	addi	a0,a0,-110 # 80007190 <digits+0x158>
    80001206:	d50ff0ef          	jal	ra,80000756 <panic>
    *pte = 0;
    8000120a:	0004b023          	sd	zero,0(s1)
  for(a = va; a < va + npages*PGSIZE; a += PGSIZE){
    8000120e:	995a                	add	s2,s2,s6
    80001210:	fb397ae3          	bgeu	s2,s3,800011c4 <uvmunmap+0x30>
    if((pte = walk(pagetable, a, 0)) == 0)
    80001214:	4601                	li	a2,0
    80001216:	85ca                	mv	a1,s2
    80001218:	8552                	mv	a0,s4
    8000121a:	cfdff0ef          	jal	ra,80000f16 <walk>
    8000121e:	84aa                	mv	s1,a0
    80001220:	d179                	beqz	a0,800011e6 <uvmunmap+0x52>
    if((*pte & PTE_V) == 0)
    80001222:	6108                	ld	a0,0(a0)
    80001224:	00157793          	andi	a5,a0,1
    80001228:	d7e9                	beqz	a5,800011f2 <uvmunmap+0x5e>
    if(PTE_FLAGS(*pte) == PTE_V)
    8000122a:	3ff57793          	andi	a5,a0,1023
    8000122e:	fd7788e3          	beq	a5,s7,800011fe <uvmunmap+0x6a>
    if(do_free){
    80001232:	fc0a8ce3          	beqz	s5,8000120a <uvmunmap+0x76>
      uint64 pa = PTE2PA(*pte);
    80001236:	8129                	srli	a0,a0,0xa
      kfree((void*)pa);
    80001238:	0532                	slli	a0,a0,0xc
    8000123a:	fb0ff0ef          	jal	ra,800009ea <kfree>
    8000123e:	b7f1                	j	8000120a <uvmunmap+0x76>

0000000080001240 <uvmcreate>:

// create an empty user page table.
// returns 0 if out of memory.
pagetable_t
uvmcreate()
{
    80001240:	1101                	addi	sp,sp,-32
    80001242:	ec06                	sd	ra,24(sp)
    80001244:	e822                	sd	s0,16(sp)
    80001246:	e426                	sd	s1,8(sp)
    80001248:	1000                	addi	s0,sp,32
  pagetable_t pagetable;
  pagetable = (pagetable_t) kalloc();
    8000124a:	881ff0ef          	jal	ra,80000aca <kalloc>
    8000124e:	84aa                	mv	s1,a0
  if(pagetable == 0)
    80001250:	c509                	beqz	a0,8000125a <uvmcreate+0x1a>
    return 0;
  memset(pagetable, 0, PGSIZE);
    80001252:	6605                	lui	a2,0x1
    80001254:	4581                	li	a1,0
    80001256:	a19ff0ef          	jal	ra,80000c6e <memset>
  return pagetable;
}
    8000125a:	8526                	mv	a0,s1
    8000125c:	60e2                	ld	ra,24(sp)
    8000125e:	6442                	ld	s0,16(sp)
    80001260:	64a2                	ld	s1,8(sp)
    80001262:	6105                	addi	sp,sp,32
    80001264:	8082                	ret

0000000080001266 <uvmfirst>:
// Load the user initcode into address 0 of pagetable,
// for the very first process.
// sz must be less than a page.
void
uvmfirst(pagetable_t pagetable, uchar *src, uint sz)
{
    80001266:	7179                	addi	sp,sp,-48
    80001268:	f406                	sd	ra,40(sp)
    8000126a:	f022                	sd	s0,32(sp)
    8000126c:	ec26                	sd	s1,24(sp)
    8000126e:	e84a                	sd	s2,16(sp)
    80001270:	e44e                	sd	s3,8(sp)
    80001272:	e052                	sd	s4,0(sp)
    80001274:	1800                	addi	s0,sp,48
  char *mem;

  if(sz >= PGSIZE)
    80001276:	6785                	lui	a5,0x1
    80001278:	04f67063          	bgeu	a2,a5,800012b8 <uvmfirst+0x52>
    8000127c:	8a2a                	mv	s4,a0
    8000127e:	89ae                	mv	s3,a1
    80001280:	84b2                	mv	s1,a2
    panic("uvmfirst: more than a page");
  mem = kalloc();
    80001282:	849ff0ef          	jal	ra,80000aca <kalloc>
    80001286:	892a                	mv	s2,a0
  memset(mem, 0, PGSIZE);
    80001288:	6605                	lui	a2,0x1
    8000128a:	4581                	li	a1,0
    8000128c:	9e3ff0ef          	jal	ra,80000c6e <memset>
  mappages(pagetable, 0, PGSIZE, (uint64)mem, PTE_W|PTE_R|PTE_X|PTE_U);
    80001290:	4779                	li	a4,30
    80001292:	86ca                	mv	a3,s2
    80001294:	6605                	lui	a2,0x1
    80001296:	4581                	li	a1,0
    80001298:	8552                	mv	a0,s4
    8000129a:	d55ff0ef          	jal	ra,80000fee <mappages>
  memmove(mem, src, sz);
    8000129e:	8626                	mv	a2,s1
    800012a0:	85ce                	mv	a1,s3
    800012a2:	854a                	mv	a0,s2
    800012a4:	a27ff0ef          	jal	ra,80000cca <memmove>
}
    800012a8:	70a2                	ld	ra,40(sp)
    800012aa:	7402                	ld	s0,32(sp)
    800012ac:	64e2                	ld	s1,24(sp)
    800012ae:	6942                	ld	s2,16(sp)
    800012b0:	69a2                	ld	s3,8(sp)
    800012b2:	6a02                	ld	s4,0(sp)
    800012b4:	6145                	addi	sp,sp,48
    800012b6:	8082                	ret
    panic("uvmfirst: more than a page");
    800012b8:	00006517          	auipc	a0,0x6
    800012bc:	ef050513          	addi	a0,a0,-272 # 800071a8 <digits+0x170>
    800012c0:	c96ff0ef          	jal	ra,80000756 <panic>

00000000800012c4 <uvmdealloc>:
// newsz.  oldsz and newsz need not be page-aligned, nor does newsz
// need to be less than oldsz.  oldsz can be larger than the actual
// process size.  Returns the new process size.
uint64
uvmdealloc(pagetable_t pagetable, uint64 oldsz, uint64 newsz)
{
    800012c4:	1101                	addi	sp,sp,-32
    800012c6:	ec06                	sd	ra,24(sp)
    800012c8:	e822                	sd	s0,16(sp)
    800012ca:	e426                	sd	s1,8(sp)
    800012cc:	1000                	addi	s0,sp,32
  if(newsz >= oldsz)
    return oldsz;
    800012ce:	84ae                	mv	s1,a1
  if(newsz >= oldsz)
    800012d0:	00b67d63          	bgeu	a2,a1,800012ea <uvmdealloc+0x26>
    800012d4:	84b2                	mv	s1,a2

  if(PGROUNDUP(newsz) < PGROUNDUP(oldsz)){
    800012d6:	6785                	lui	a5,0x1
    800012d8:	17fd                	addi	a5,a5,-1
    800012da:	00f60733          	add	a4,a2,a5
    800012de:	767d                	lui	a2,0xfffff
    800012e0:	8f71                	and	a4,a4,a2
    800012e2:	97ae                	add	a5,a5,a1
    800012e4:	8ff1                	and	a5,a5,a2
    800012e6:	00f76863          	bltu	a4,a5,800012f6 <uvmdealloc+0x32>
    int npages = (PGROUNDUP(oldsz) - PGROUNDUP(newsz)) / PGSIZE;
    uvmunmap(pagetable, PGROUNDUP(newsz), npages, 1);
  }

  return newsz;
}
    800012ea:	8526                	mv	a0,s1
    800012ec:	60e2                	ld	ra,24(sp)
    800012ee:	6442                	ld	s0,16(sp)
    800012f0:	64a2                	ld	s1,8(sp)
    800012f2:	6105                	addi	sp,sp,32
    800012f4:	8082                	ret
    int npages = (PGROUNDUP(oldsz) - PGROUNDUP(newsz)) / PGSIZE;
    800012f6:	8f99                	sub	a5,a5,a4
    800012f8:	83b1                	srli	a5,a5,0xc
    uvmunmap(pagetable, PGROUNDUP(newsz), npages, 1);
    800012fa:	4685                	li	a3,1
    800012fc:	0007861b          	sext.w	a2,a5
    80001300:	85ba                	mv	a1,a4
    80001302:	e93ff0ef          	jal	ra,80001194 <uvmunmap>
    80001306:	b7d5                	j	800012ea <uvmdealloc+0x26>

0000000080001308 <uvmalloc>:
  if(newsz < oldsz)
    80001308:	08b66963          	bltu	a2,a1,8000139a <uvmalloc+0x92>
{
    8000130c:	7139                	addi	sp,sp,-64
    8000130e:	fc06                	sd	ra,56(sp)
    80001310:	f822                	sd	s0,48(sp)
    80001312:	f426                	sd	s1,40(sp)
    80001314:	f04a                	sd	s2,32(sp)
    80001316:	ec4e                	sd	s3,24(sp)
    80001318:	e852                	sd	s4,16(sp)
    8000131a:	e456                	sd	s5,8(sp)
    8000131c:	e05a                	sd	s6,0(sp)
    8000131e:	0080                	addi	s0,sp,64
    80001320:	8aaa                	mv	s5,a0
    80001322:	8a32                	mv	s4,a2
  oldsz = PGROUNDUP(oldsz);
    80001324:	6985                	lui	s3,0x1
    80001326:	19fd                	addi	s3,s3,-1
    80001328:	95ce                	add	a1,a1,s3
    8000132a:	79fd                	lui	s3,0xfffff
    8000132c:	0135f9b3          	and	s3,a1,s3
  for(a = oldsz; a < newsz; a += PGSIZE){
    80001330:	06c9f763          	bgeu	s3,a2,8000139e <uvmalloc+0x96>
    80001334:	894e                	mv	s2,s3
    if(mappages(pagetable, a, PGSIZE, (uint64)mem, PTE_R|PTE_U|xperm) != 0){
    80001336:	0126eb13          	ori	s6,a3,18
    mem = kalloc();
    8000133a:	f90ff0ef          	jal	ra,80000aca <kalloc>
    8000133e:	84aa                	mv	s1,a0
    if(mem == 0){
    80001340:	c11d                	beqz	a0,80001366 <uvmalloc+0x5e>
    memset(mem, 0, PGSIZE);
    80001342:	6605                	lui	a2,0x1
    80001344:	4581                	li	a1,0
    80001346:	929ff0ef          	jal	ra,80000c6e <memset>
    if(mappages(pagetable, a, PGSIZE, (uint64)mem, PTE_R|PTE_U|xperm) != 0){
    8000134a:	875a                	mv	a4,s6
    8000134c:	86a6                	mv	a3,s1
    8000134e:	6605                	lui	a2,0x1
    80001350:	85ca                	mv	a1,s2
    80001352:	8556                	mv	a0,s5
    80001354:	c9bff0ef          	jal	ra,80000fee <mappages>
    80001358:	e51d                	bnez	a0,80001386 <uvmalloc+0x7e>
  for(a = oldsz; a < newsz; a += PGSIZE){
    8000135a:	6785                	lui	a5,0x1
    8000135c:	993e                	add	s2,s2,a5
    8000135e:	fd496ee3          	bltu	s2,s4,8000133a <uvmalloc+0x32>
  return newsz;
    80001362:	8552                	mv	a0,s4
    80001364:	a039                	j	80001372 <uvmalloc+0x6a>
      uvmdealloc(pagetable, a, oldsz);
    80001366:	864e                	mv	a2,s3
    80001368:	85ca                	mv	a1,s2
    8000136a:	8556                	mv	a0,s5
    8000136c:	f59ff0ef          	jal	ra,800012c4 <uvmdealloc>
      return 0;
    80001370:	4501                	li	a0,0
}
    80001372:	70e2                	ld	ra,56(sp)
    80001374:	7442                	ld	s0,48(sp)
    80001376:	74a2                	ld	s1,40(sp)
    80001378:	7902                	ld	s2,32(sp)
    8000137a:	69e2                	ld	s3,24(sp)
    8000137c:	6a42                	ld	s4,16(sp)
    8000137e:	6aa2                	ld	s5,8(sp)
    80001380:	6b02                	ld	s6,0(sp)
    80001382:	6121                	addi	sp,sp,64
    80001384:	8082                	ret
      kfree(mem);
    80001386:	8526                	mv	a0,s1
    80001388:	e62ff0ef          	jal	ra,800009ea <kfree>
      uvmdealloc(pagetable, a, oldsz);
    8000138c:	864e                	mv	a2,s3
    8000138e:	85ca                	mv	a1,s2
    80001390:	8556                	mv	a0,s5
    80001392:	f33ff0ef          	jal	ra,800012c4 <uvmdealloc>
      return 0;
    80001396:	4501                	li	a0,0
    80001398:	bfe9                	j	80001372 <uvmalloc+0x6a>
    return oldsz;
    8000139a:	852e                	mv	a0,a1
}
    8000139c:	8082                	ret
  return newsz;
    8000139e:	8532                	mv	a0,a2
    800013a0:	bfc9                	j	80001372 <uvmalloc+0x6a>

00000000800013a2 <freewalk>:

// Recursively free page-table pages.
// All leaf mappings must already have been removed.
void
freewalk(pagetable_t pagetable)
{
    800013a2:	7179                	addi	sp,sp,-48
    800013a4:	f406                	sd	ra,40(sp)
    800013a6:	f022                	sd	s0,32(sp)
    800013a8:	ec26                	sd	s1,24(sp)
    800013aa:	e84a                	sd	s2,16(sp)
    800013ac:	e44e                	sd	s3,8(sp)
    800013ae:	e052                	sd	s4,0(sp)
    800013b0:	1800                	addi	s0,sp,48
    800013b2:	8a2a                	mv	s4,a0
  // there are 2^9 = 512 PTEs in a page table.
  for(int i = 0; i < 512; i++){
    800013b4:	84aa                	mv	s1,a0
    800013b6:	6905                	lui	s2,0x1
    800013b8:	992a                	add	s2,s2,a0
    pte_t pte = pagetable[i];
    if((pte & PTE_V) && (pte & (PTE_R|PTE_W|PTE_X)) == 0){
    800013ba:	4985                	li	s3,1
    800013bc:	a811                	j	800013d0 <freewalk+0x2e>
      // this PTE points to a lower-level page table.
      uint64 child = PTE2PA(pte);
    800013be:	8129                	srli	a0,a0,0xa
      freewalk((pagetable_t)child);
    800013c0:	0532                	slli	a0,a0,0xc
    800013c2:	fe1ff0ef          	jal	ra,800013a2 <freewalk>
      pagetable[i] = 0;
    800013c6:	0004b023          	sd	zero,0(s1)
  for(int i = 0; i < 512; i++){
    800013ca:	04a1                	addi	s1,s1,8
    800013cc:	01248f63          	beq	s1,s2,800013ea <freewalk+0x48>
    pte_t pte = pagetable[i];
    800013d0:	6088                	ld	a0,0(s1)
    if((pte & PTE_V) && (pte & (PTE_R|PTE_W|PTE_X)) == 0){
    800013d2:	00f57793          	andi	a5,a0,15
    800013d6:	ff3784e3          	beq	a5,s3,800013be <freewalk+0x1c>
    } else if(pte & PTE_V){
    800013da:	8905                	andi	a0,a0,1
    800013dc:	d57d                	beqz	a0,800013ca <freewalk+0x28>
      panic("freewalk: leaf");
    800013de:	00006517          	auipc	a0,0x6
    800013e2:	dea50513          	addi	a0,a0,-534 # 800071c8 <digits+0x190>
    800013e6:	b70ff0ef          	jal	ra,80000756 <panic>
    }
  }
  kfree((void*)pagetable);
    800013ea:	8552                	mv	a0,s4
    800013ec:	dfeff0ef          	jal	ra,800009ea <kfree>
}
    800013f0:	70a2                	ld	ra,40(sp)
    800013f2:	7402                	ld	s0,32(sp)
    800013f4:	64e2                	ld	s1,24(sp)
    800013f6:	6942                	ld	s2,16(sp)
    800013f8:	69a2                	ld	s3,8(sp)
    800013fa:	6a02                	ld	s4,0(sp)
    800013fc:	6145                	addi	sp,sp,48
    800013fe:	8082                	ret

0000000080001400 <uvmfree>:

// Free user memory pages,
// then free page-table pages.
void
uvmfree(pagetable_t pagetable, uint64 sz)
{
    80001400:	1101                	addi	sp,sp,-32
    80001402:	ec06                	sd	ra,24(sp)
    80001404:	e822                	sd	s0,16(sp)
    80001406:	e426                	sd	s1,8(sp)
    80001408:	1000                	addi	s0,sp,32
    8000140a:	84aa                	mv	s1,a0
  if(sz > 0)
    8000140c:	e989                	bnez	a1,8000141e <uvmfree+0x1e>
    uvmunmap(pagetable, 0, PGROUNDUP(sz)/PGSIZE, 1);
  freewalk(pagetable);
    8000140e:	8526                	mv	a0,s1
    80001410:	f93ff0ef          	jal	ra,800013a2 <freewalk>
}
    80001414:	60e2                	ld	ra,24(sp)
    80001416:	6442                	ld	s0,16(sp)
    80001418:	64a2                	ld	s1,8(sp)
    8000141a:	6105                	addi	sp,sp,32
    8000141c:	8082                	ret
    uvmunmap(pagetable, 0, PGROUNDUP(sz)/PGSIZE, 1);
    8000141e:	6605                	lui	a2,0x1
    80001420:	167d                	addi	a2,a2,-1
    80001422:	962e                	add	a2,a2,a1
    80001424:	4685                	li	a3,1
    80001426:	8231                	srli	a2,a2,0xc
    80001428:	4581                	li	a1,0
    8000142a:	d6bff0ef          	jal	ra,80001194 <uvmunmap>
    8000142e:	b7c5                	j	8000140e <uvmfree+0xe>

0000000080001430 <uvmcopy>:
  pte_t *pte;
  uint64 pa, i;
  uint flags;
  char *mem;

  for(i = 0; i < sz; i += PGSIZE){
    80001430:	c65d                	beqz	a2,800014de <uvmcopy+0xae>
{
    80001432:	715d                	addi	sp,sp,-80
    80001434:	e486                	sd	ra,72(sp)
    80001436:	e0a2                	sd	s0,64(sp)
    80001438:	fc26                	sd	s1,56(sp)
    8000143a:	f84a                	sd	s2,48(sp)
    8000143c:	f44e                	sd	s3,40(sp)
    8000143e:	f052                	sd	s4,32(sp)
    80001440:	ec56                	sd	s5,24(sp)
    80001442:	e85a                	sd	s6,16(sp)
    80001444:	e45e                	sd	s7,8(sp)
    80001446:	0880                	addi	s0,sp,80
    80001448:	8b2a                	mv	s6,a0
    8000144a:	8aae                	mv	s5,a1
    8000144c:	8a32                	mv	s4,a2
  for(i = 0; i < sz; i += PGSIZE){
    8000144e:	4981                	li	s3,0
    if((pte = walk(old, i, 0)) == 0)
    80001450:	4601                	li	a2,0
    80001452:	85ce                	mv	a1,s3
    80001454:	855a                	mv	a0,s6
    80001456:	ac1ff0ef          	jal	ra,80000f16 <walk>
    8000145a:	c121                	beqz	a0,8000149a <uvmcopy+0x6a>
      panic("uvmcopy: pte should exist");
    if((*pte & PTE_V) == 0)
    8000145c:	6118                	ld	a4,0(a0)
    8000145e:	00177793          	andi	a5,a4,1
    80001462:	c3b1                	beqz	a5,800014a6 <uvmcopy+0x76>
      panic("uvmcopy: page not present");
    pa = PTE2PA(*pte);
    80001464:	00a75593          	srli	a1,a4,0xa
    80001468:	00c59b93          	slli	s7,a1,0xc
    flags = PTE_FLAGS(*pte);
    8000146c:	3ff77493          	andi	s1,a4,1023
    if((mem = kalloc()) == 0)
    80001470:	e5aff0ef          	jal	ra,80000aca <kalloc>
    80001474:	892a                	mv	s2,a0
    80001476:	c129                	beqz	a0,800014b8 <uvmcopy+0x88>
      goto err;
    memmove(mem, (char*)pa, PGSIZE);
    80001478:	6605                	lui	a2,0x1
    8000147a:	85de                	mv	a1,s7
    8000147c:	84fff0ef          	jal	ra,80000cca <memmove>
    if(mappages(new, i, PGSIZE, (uint64)mem, flags) != 0){
    80001480:	8726                	mv	a4,s1
    80001482:	86ca                	mv	a3,s2
    80001484:	6605                	lui	a2,0x1
    80001486:	85ce                	mv	a1,s3
    80001488:	8556                	mv	a0,s5
    8000148a:	b65ff0ef          	jal	ra,80000fee <mappages>
    8000148e:	e115                	bnez	a0,800014b2 <uvmcopy+0x82>
  for(i = 0; i < sz; i += PGSIZE){
    80001490:	6785                	lui	a5,0x1
    80001492:	99be                	add	s3,s3,a5
    80001494:	fb49eee3          	bltu	s3,s4,80001450 <uvmcopy+0x20>
    80001498:	a805                	j	800014c8 <uvmcopy+0x98>
      panic("uvmcopy: pte should exist");
    8000149a:	00006517          	auipc	a0,0x6
    8000149e:	d3e50513          	addi	a0,a0,-706 # 800071d8 <digits+0x1a0>
    800014a2:	ab4ff0ef          	jal	ra,80000756 <panic>
      panic("uvmcopy: page not present");
    800014a6:	00006517          	auipc	a0,0x6
    800014aa:	d5250513          	addi	a0,a0,-686 # 800071f8 <digits+0x1c0>
    800014ae:	aa8ff0ef          	jal	ra,80000756 <panic>
      kfree(mem);
    800014b2:	854a                	mv	a0,s2
    800014b4:	d36ff0ef          	jal	ra,800009ea <kfree>
    }
  }
  return 0;

 err:
  uvmunmap(new, 0, i / PGSIZE, 1);
    800014b8:	4685                	li	a3,1
    800014ba:	00c9d613          	srli	a2,s3,0xc
    800014be:	4581                	li	a1,0
    800014c0:	8556                	mv	a0,s5
    800014c2:	cd3ff0ef          	jal	ra,80001194 <uvmunmap>
  return -1;
    800014c6:	557d                	li	a0,-1
}
    800014c8:	60a6                	ld	ra,72(sp)
    800014ca:	6406                	ld	s0,64(sp)
    800014cc:	74e2                	ld	s1,56(sp)
    800014ce:	7942                	ld	s2,48(sp)
    800014d0:	79a2                	ld	s3,40(sp)
    800014d2:	7a02                	ld	s4,32(sp)
    800014d4:	6ae2                	ld	s5,24(sp)
    800014d6:	6b42                	ld	s6,16(sp)
    800014d8:	6ba2                	ld	s7,8(sp)
    800014da:	6161                	addi	sp,sp,80
    800014dc:	8082                	ret
  return 0;
    800014de:	4501                	li	a0,0
}
    800014e0:	8082                	ret

00000000800014e2 <uvmclear>:

// mark a PTE invalid for user access.
// used by exec for the user stack guard page.
void
uvmclear(pagetable_t pagetable, uint64 va)
{
    800014e2:	1141                	addi	sp,sp,-16
    800014e4:	e406                	sd	ra,8(sp)
    800014e6:	e022                	sd	s0,0(sp)
    800014e8:	0800                	addi	s0,sp,16
  pte_t *pte;
  
  pte = walk(pagetable, va, 0);
    800014ea:	4601                	li	a2,0
    800014ec:	a2bff0ef          	jal	ra,80000f16 <walk>
  if(pte == 0)
    800014f0:	c901                	beqz	a0,80001500 <uvmclear+0x1e>
    panic("uvmclear");
  *pte &= ~PTE_U;
    800014f2:	611c                	ld	a5,0(a0)
    800014f4:	9bbd                	andi	a5,a5,-17
    800014f6:	e11c                	sd	a5,0(a0)
}
    800014f8:	60a2                	ld	ra,8(sp)
    800014fa:	6402                	ld	s0,0(sp)
    800014fc:	0141                	addi	sp,sp,16
    800014fe:	8082                	ret
    panic("uvmclear");
    80001500:	00006517          	auipc	a0,0x6
    80001504:	d1850513          	addi	a0,a0,-744 # 80007218 <digits+0x1e0>
    80001508:	a4eff0ef          	jal	ra,80000756 <panic>

000000008000150c <copyout>:
copyout(pagetable_t pagetable, uint64 dstva, char *src, uint64 len)
{
  uint64 n, va0, pa0;
  pte_t *pte;

  while(len > 0){
    8000150c:	c6c9                	beqz	a3,80001596 <copyout+0x8a>
{
    8000150e:	711d                	addi	sp,sp,-96
    80001510:	ec86                	sd	ra,88(sp)
    80001512:	e8a2                	sd	s0,80(sp)
    80001514:	e4a6                	sd	s1,72(sp)
    80001516:	e0ca                	sd	s2,64(sp)
    80001518:	fc4e                	sd	s3,56(sp)
    8000151a:	f852                	sd	s4,48(sp)
    8000151c:	f456                	sd	s5,40(sp)
    8000151e:	f05a                	sd	s6,32(sp)
    80001520:	ec5e                	sd	s7,24(sp)
    80001522:	e862                	sd	s8,16(sp)
    80001524:	e466                	sd	s9,8(sp)
    80001526:	e06a                	sd	s10,0(sp)
    80001528:	1080                	addi	s0,sp,96
    8000152a:	8baa                	mv	s7,a0
    8000152c:	8aae                	mv	s5,a1
    8000152e:	8b32                	mv	s6,a2
    80001530:	89b6                	mv	s3,a3
    va0 = PGROUNDDOWN(dstva);
    80001532:	74fd                	lui	s1,0xfffff
    80001534:	8ced                	and	s1,s1,a1
    if(va0 >= MAXVA)
    80001536:	57fd                	li	a5,-1
    80001538:	83e9                	srli	a5,a5,0x1a
    8000153a:	0697e063          	bltu	a5,s1,8000159a <copyout+0x8e>
      return -1;
    pte = walk(pagetable, va0, 0);
    if(pte == 0 || (*pte & PTE_V) == 0 || (*pte & PTE_U) == 0 ||
    8000153e:	4cd5                	li	s9,21
    80001540:	6d05                	lui	s10,0x1
    if(va0 >= MAXVA)
    80001542:	8c3e                	mv	s8,a5
    80001544:	a025                	j	8000156c <copyout+0x60>
       (*pte & PTE_W) == 0)
      return -1;
    pa0 = PTE2PA(*pte);
    80001546:	83a9                	srli	a5,a5,0xa
    80001548:	07b2                	slli	a5,a5,0xc
    n = PGSIZE - (dstva - va0);
    if(n > len)
      n = len;
    memmove((void *)(pa0 + (dstva - va0)), src, n);
    8000154a:	409a8533          	sub	a0,s5,s1
    8000154e:	0009061b          	sext.w	a2,s2
    80001552:	85da                	mv	a1,s6
    80001554:	953e                	add	a0,a0,a5
    80001556:	f74ff0ef          	jal	ra,80000cca <memmove>

    len -= n;
    8000155a:	412989b3          	sub	s3,s3,s2
    src += n;
    8000155e:	9b4a                	add	s6,s6,s2
  while(len > 0){
    80001560:	02098963          	beqz	s3,80001592 <copyout+0x86>
    if(va0 >= MAXVA)
    80001564:	034c6d63          	bltu	s8,s4,8000159e <copyout+0x92>
    va0 = PGROUNDDOWN(dstva);
    80001568:	84d2                	mv	s1,s4
    dstva = va0 + PGSIZE;
    8000156a:	8ad2                	mv	s5,s4
    pte = walk(pagetable, va0, 0);
    8000156c:	4601                	li	a2,0
    8000156e:	85a6                	mv	a1,s1
    80001570:	855e                	mv	a0,s7
    80001572:	9a5ff0ef          	jal	ra,80000f16 <walk>
    if(pte == 0 || (*pte & PTE_V) == 0 || (*pte & PTE_U) == 0 ||
    80001576:	c515                	beqz	a0,800015a2 <copyout+0x96>
    80001578:	611c                	ld	a5,0(a0)
    8000157a:	0157f713          	andi	a4,a5,21
    8000157e:	05971163          	bne	a4,s9,800015c0 <copyout+0xb4>
    n = PGSIZE - (dstva - va0);
    80001582:	01a48a33          	add	s4,s1,s10
    80001586:	415a0933          	sub	s2,s4,s5
    if(n > len)
    8000158a:	fb29fee3          	bgeu	s3,s2,80001546 <copyout+0x3a>
    8000158e:	894e                	mv	s2,s3
    80001590:	bf5d                	j	80001546 <copyout+0x3a>
  }
  return 0;
    80001592:	4501                	li	a0,0
    80001594:	a801                	j	800015a4 <copyout+0x98>
    80001596:	4501                	li	a0,0
}
    80001598:	8082                	ret
      return -1;
    8000159a:	557d                	li	a0,-1
    8000159c:	a021                	j	800015a4 <copyout+0x98>
    8000159e:	557d                	li	a0,-1
    800015a0:	a011                	j	800015a4 <copyout+0x98>
      return -1;
    800015a2:	557d                	li	a0,-1
}
    800015a4:	60e6                	ld	ra,88(sp)
    800015a6:	6446                	ld	s0,80(sp)
    800015a8:	64a6                	ld	s1,72(sp)
    800015aa:	6906                	ld	s2,64(sp)
    800015ac:	79e2                	ld	s3,56(sp)
    800015ae:	7a42                	ld	s4,48(sp)
    800015b0:	7aa2                	ld	s5,40(sp)
    800015b2:	7b02                	ld	s6,32(sp)
    800015b4:	6be2                	ld	s7,24(sp)
    800015b6:	6c42                	ld	s8,16(sp)
    800015b8:	6ca2                	ld	s9,8(sp)
    800015ba:	6d02                	ld	s10,0(sp)
    800015bc:	6125                	addi	sp,sp,96
    800015be:	8082                	ret
      return -1;
    800015c0:	557d                	li	a0,-1
    800015c2:	b7cd                	j	800015a4 <copyout+0x98>

00000000800015c4 <copyin>:
int
copyin(pagetable_t pagetable, char *dst, uint64 srcva, uint64 len)
{
  uint64 n, va0, pa0;

  while(len > 0){
    800015c4:	c6a5                	beqz	a3,8000162c <copyin+0x68>
{
    800015c6:	715d                	addi	sp,sp,-80
    800015c8:	e486                	sd	ra,72(sp)
    800015ca:	e0a2                	sd	s0,64(sp)
    800015cc:	fc26                	sd	s1,56(sp)
    800015ce:	f84a                	sd	s2,48(sp)
    800015d0:	f44e                	sd	s3,40(sp)
    800015d2:	f052                	sd	s4,32(sp)
    800015d4:	ec56                	sd	s5,24(sp)
    800015d6:	e85a                	sd	s6,16(sp)
    800015d8:	e45e                	sd	s7,8(sp)
    800015da:	e062                	sd	s8,0(sp)
    800015dc:	0880                	addi	s0,sp,80
    800015de:	8b2a                	mv	s6,a0
    800015e0:	8a2e                	mv	s4,a1
    800015e2:	8c32                	mv	s8,a2
    800015e4:	89b6                	mv	s3,a3
    va0 = PGROUNDDOWN(srcva);
    800015e6:	7bfd                	lui	s7,0xfffff
    pa0 = walkaddr(pagetable, va0);
    if(pa0 == 0)
      return -1;
    n = PGSIZE - (srcva - va0);
    800015e8:	6a85                	lui	s5,0x1
    800015ea:	a00d                	j	8000160c <copyin+0x48>
    if(n > len)
      n = len;
    memmove(dst, (void *)(pa0 + (srcva - va0)), n);
    800015ec:	018505b3          	add	a1,a0,s8
    800015f0:	0004861b          	sext.w	a2,s1
    800015f4:	412585b3          	sub	a1,a1,s2
    800015f8:	8552                	mv	a0,s4
    800015fa:	ed0ff0ef          	jal	ra,80000cca <memmove>

    len -= n;
    800015fe:	409989b3          	sub	s3,s3,s1
    dst += n;
    80001602:	9a26                	add	s4,s4,s1
    srcva = va0 + PGSIZE;
    80001604:	01590c33          	add	s8,s2,s5
  while(len > 0){
    80001608:	02098063          	beqz	s3,80001628 <copyin+0x64>
    va0 = PGROUNDDOWN(srcva);
    8000160c:	017c7933          	and	s2,s8,s7
    pa0 = walkaddr(pagetable, va0);
    80001610:	85ca                	mv	a1,s2
    80001612:	855a                	mv	a0,s6
    80001614:	99dff0ef          	jal	ra,80000fb0 <walkaddr>
    if(pa0 == 0)
    80001618:	cd01                	beqz	a0,80001630 <copyin+0x6c>
    n = PGSIZE - (srcva - va0);
    8000161a:	418904b3          	sub	s1,s2,s8
    8000161e:	94d6                	add	s1,s1,s5
    if(n > len)
    80001620:	fc99f6e3          	bgeu	s3,s1,800015ec <copyin+0x28>
    80001624:	84ce                	mv	s1,s3
    80001626:	b7d9                	j	800015ec <copyin+0x28>
  }
  return 0;
    80001628:	4501                	li	a0,0
    8000162a:	a021                	j	80001632 <copyin+0x6e>
    8000162c:	4501                	li	a0,0
}
    8000162e:	8082                	ret
      return -1;
    80001630:	557d                	li	a0,-1
}
    80001632:	60a6                	ld	ra,72(sp)
    80001634:	6406                	ld	s0,64(sp)
    80001636:	74e2                	ld	s1,56(sp)
    80001638:	7942                	ld	s2,48(sp)
    8000163a:	79a2                	ld	s3,40(sp)
    8000163c:	7a02                	ld	s4,32(sp)
    8000163e:	6ae2                	ld	s5,24(sp)
    80001640:	6b42                	ld	s6,16(sp)
    80001642:	6ba2                	ld	s7,8(sp)
    80001644:	6c02                	ld	s8,0(sp)
    80001646:	6161                	addi	sp,sp,80
    80001648:	8082                	ret

000000008000164a <copyinstr>:
copyinstr(pagetable_t pagetable, char *dst, uint64 srcva, uint64 max)
{
  uint64 n, va0, pa0;
  int got_null = 0;

  while(got_null == 0 && max > 0){
    8000164a:	c2d5                	beqz	a3,800016ee <copyinstr+0xa4>
{
    8000164c:	715d                	addi	sp,sp,-80
    8000164e:	e486                	sd	ra,72(sp)
    80001650:	e0a2                	sd	s0,64(sp)
    80001652:	fc26                	sd	s1,56(sp)
    80001654:	f84a                	sd	s2,48(sp)
    80001656:	f44e                	sd	s3,40(sp)
    80001658:	f052                	sd	s4,32(sp)
    8000165a:	ec56                	sd	s5,24(sp)
    8000165c:	e85a                	sd	s6,16(sp)
    8000165e:	e45e                	sd	s7,8(sp)
    80001660:	0880                	addi	s0,sp,80
    80001662:	8a2a                	mv	s4,a0
    80001664:	8b2e                	mv	s6,a1
    80001666:	8bb2                	mv	s7,a2
    80001668:	84b6                	mv	s1,a3
    va0 = PGROUNDDOWN(srcva);
    8000166a:	7afd                	lui	s5,0xfffff
    pa0 = walkaddr(pagetable, va0);
    if(pa0 == 0)
      return -1;
    n = PGSIZE - (srcva - va0);
    8000166c:	6985                	lui	s3,0x1
    8000166e:	a035                	j	8000169a <copyinstr+0x50>
      n = max;

    char *p = (char *) (pa0 + (srcva - va0));
    while(n > 0){
      if(*p == '\0'){
        *dst = '\0';
    80001670:	00078023          	sb	zero,0(a5) # 1000 <_entry-0x7ffff000>
    80001674:	4785                	li	a5,1
      dst++;
    }

    srcva = va0 + PGSIZE;
  }
  if(got_null){
    80001676:	0017b793          	seqz	a5,a5
    8000167a:	40f00533          	neg	a0,a5
    return 0;
  } else {
    return -1;
  }
}
    8000167e:	60a6                	ld	ra,72(sp)
    80001680:	6406                	ld	s0,64(sp)
    80001682:	74e2                	ld	s1,56(sp)
    80001684:	7942                	ld	s2,48(sp)
    80001686:	79a2                	ld	s3,40(sp)
    80001688:	7a02                	ld	s4,32(sp)
    8000168a:	6ae2                	ld	s5,24(sp)
    8000168c:	6b42                	ld	s6,16(sp)
    8000168e:	6ba2                	ld	s7,8(sp)
    80001690:	6161                	addi	sp,sp,80
    80001692:	8082                	ret
    srcva = va0 + PGSIZE;
    80001694:	01390bb3          	add	s7,s2,s3
  while(got_null == 0 && max > 0){
    80001698:	c4b9                	beqz	s1,800016e6 <copyinstr+0x9c>
    va0 = PGROUNDDOWN(srcva);
    8000169a:	015bf933          	and	s2,s7,s5
    pa0 = walkaddr(pagetable, va0);
    8000169e:	85ca                	mv	a1,s2
    800016a0:	8552                	mv	a0,s4
    800016a2:	90fff0ef          	jal	ra,80000fb0 <walkaddr>
    if(pa0 == 0)
    800016a6:	c131                	beqz	a0,800016ea <copyinstr+0xa0>
    n = PGSIZE - (srcva - va0);
    800016a8:	41790833          	sub	a6,s2,s7
    800016ac:	984e                	add	a6,a6,s3
    if(n > max)
    800016ae:	0104f363          	bgeu	s1,a6,800016b4 <copyinstr+0x6a>
    800016b2:	8826                	mv	a6,s1
    char *p = (char *) (pa0 + (srcva - va0));
    800016b4:	955e                	add	a0,a0,s7
    800016b6:	41250533          	sub	a0,a0,s2
    while(n > 0){
    800016ba:	fc080de3          	beqz	a6,80001694 <copyinstr+0x4a>
    800016be:	985a                	add	a6,a6,s6
    800016c0:	87da                	mv	a5,s6
      if(*p == '\0'){
    800016c2:	41650633          	sub	a2,a0,s6
    800016c6:	14fd                	addi	s1,s1,-1
    800016c8:	9b26                	add	s6,s6,s1
    800016ca:	00f60733          	add	a4,a2,a5
    800016ce:	00074703          	lbu	a4,0(a4)
    800016d2:	df59                	beqz	a4,80001670 <copyinstr+0x26>
        *dst = *p;
    800016d4:	00e78023          	sb	a4,0(a5)
      --max;
    800016d8:	40fb04b3          	sub	s1,s6,a5
      dst++;
    800016dc:	0785                	addi	a5,a5,1
    while(n > 0){
    800016de:	ff0796e3          	bne	a5,a6,800016ca <copyinstr+0x80>
      dst++;
    800016e2:	8b42                	mv	s6,a6
    800016e4:	bf45                	j	80001694 <copyinstr+0x4a>
    800016e6:	4781                	li	a5,0
    800016e8:	b779                	j	80001676 <copyinstr+0x2c>
      return -1;
    800016ea:	557d                	li	a0,-1
    800016ec:	bf49                	j	8000167e <copyinstr+0x34>
  int got_null = 0;
    800016ee:	4781                	li	a5,0
  if(got_null){
    800016f0:	0017b793          	seqz	a5,a5
    800016f4:	40f00533          	neg	a0,a5
}
    800016f8:	8082                	ret

00000000800016fa <proc_mapstacks>:
// Allocate a page for each process's kernel stack.
// Map it high in memory, followed by an invalid
// guard page.
void
proc_mapstacks(pagetable_t kpgtbl)
{
    800016fa:	7139                	addi	sp,sp,-64
    800016fc:	fc06                	sd	ra,56(sp)
    800016fe:	f822                	sd	s0,48(sp)
    80001700:	f426                	sd	s1,40(sp)
    80001702:	f04a                	sd	s2,32(sp)
    80001704:	ec4e                	sd	s3,24(sp)
    80001706:	e852                	sd	s4,16(sp)
    80001708:	e456                	sd	s5,8(sp)
    8000170a:	e05a                	sd	s6,0(sp)
    8000170c:	0080                	addi	s0,sp,64
    8000170e:	89aa                	mv	s3,a0
  struct proc *p;
  
  for(p = proc; p < &proc[NPROC]; p++) {
    80001710:	0000f497          	auipc	s1,0xf
    80001714:	b4048493          	addi	s1,s1,-1216 # 80010250 <proc>
    char *pa = kalloc();
    if(pa == 0)
      panic("kalloc");
    uint64 va = KSTACK((int) (p - proc));
    80001718:	8b26                	mv	s6,s1
    8000171a:	00006a97          	auipc	s5,0x6
    8000171e:	8e6a8a93          	addi	s5,s5,-1818 # 80007000 <etext>
    80001722:	04000937          	lui	s2,0x4000
    80001726:	197d                	addi	s2,s2,-1
    80001728:	0932                	slli	s2,s2,0xc
  for(p = proc; p < &proc[NPROC]; p++) {
    8000172a:	0002ba17          	auipc	s4,0x2b
    8000172e:	526a0a13          	addi	s4,s4,1318 # 8002cc50 <tickslock>
    char *pa = kalloc();
    80001732:	b98ff0ef          	jal	ra,80000aca <kalloc>
    80001736:	862a                	mv	a2,a0
    if(pa == 0)
    80001738:	c121                	beqz	a0,80001778 <proc_mapstacks+0x7e>
    uint64 va = KSTACK((int) (p - proc));
    8000173a:	416485b3          	sub	a1,s1,s6
    8000173e:	858d                	srai	a1,a1,0x3
    80001740:	000ab783          	ld	a5,0(s5)
    80001744:	02f585b3          	mul	a1,a1,a5
    80001748:	2585                	addiw	a1,a1,1
    8000174a:	00d5959b          	slliw	a1,a1,0xd
    kvmmap(kpgtbl, va, (uint64)pa, PGSIZE, PTE_R | PTE_W);
    8000174e:	4719                	li	a4,6
    80001750:	6685                	lui	a3,0x1
    80001752:	40b905b3          	sub	a1,s2,a1
    80001756:	854e                	mv	a0,s3
    80001758:	947ff0ef          	jal	ra,8000109e <kvmmap>
  for(p = proc; p < &proc[NPROC]; p++) {
    8000175c:	72848493          	addi	s1,s1,1832
    80001760:	fd4499e3          	bne	s1,s4,80001732 <proc_mapstacks+0x38>
  }
}
    80001764:	70e2                	ld	ra,56(sp)
    80001766:	7442                	ld	s0,48(sp)
    80001768:	74a2                	ld	s1,40(sp)
    8000176a:	7902                	ld	s2,32(sp)
    8000176c:	69e2                	ld	s3,24(sp)
    8000176e:	6a42                	ld	s4,16(sp)
    80001770:	6aa2                	ld	s5,8(sp)
    80001772:	6b02                	ld	s6,0(sp)
    80001774:	6121                	addi	sp,sp,64
    80001776:	8082                	ret
      panic("kalloc");
    80001778:	00006517          	auipc	a0,0x6
    8000177c:	ab050513          	addi	a0,a0,-1360 # 80007228 <digits+0x1f0>
    80001780:	fd7fe0ef          	jal	ra,80000756 <panic>

0000000080001784 <procinit>:

// initialize the proc table.
void
procinit(void)
{
    80001784:	7139                	addi	sp,sp,-64
    80001786:	fc06                	sd	ra,56(sp)
    80001788:	f822                	sd	s0,48(sp)
    8000178a:	f426                	sd	s1,40(sp)
    8000178c:	f04a                	sd	s2,32(sp)
    8000178e:	ec4e                	sd	s3,24(sp)
    80001790:	e852                	sd	s4,16(sp)
    80001792:	e456                	sd	s5,8(sp)
    80001794:	e05a                	sd	s6,0(sp)
    80001796:	0080                	addi	s0,sp,64
  struct proc *p;
  
  initlock(&pid_lock, "nextpid");
    80001798:	00006597          	auipc	a1,0x6
    8000179c:	a9858593          	addi	a1,a1,-1384 # 80007230 <digits+0x1f8>
    800017a0:	0000e517          	auipc	a0,0xe
    800017a4:	68050513          	addi	a0,a0,1664 # 8000fe20 <pid_lock>
    800017a8:	b72ff0ef          	jal	ra,80000b1a <initlock>
  initlock(&wait_lock, "wait_lock");
    800017ac:	00006597          	auipc	a1,0x6
    800017b0:	a8c58593          	addi	a1,a1,-1396 # 80007238 <digits+0x200>
    800017b4:	0000e517          	auipc	a0,0xe
    800017b8:	68450513          	addi	a0,a0,1668 # 8000fe38 <wait_lock>
    800017bc:	b5eff0ef          	jal	ra,80000b1a <initlock>
  for(p = proc; p < &proc[NPROC]; p++) {
    800017c0:	0000f497          	auipc	s1,0xf
    800017c4:	a9048493          	addi	s1,s1,-1392 # 80010250 <proc>
      initlock(&p->lock, "proc");
    800017c8:	00006b17          	auipc	s6,0x6
    800017cc:	a80b0b13          	addi	s6,s6,-1408 # 80007248 <digits+0x210>
      p->state = UNUSED;
      p->kstack = KSTACK((int) (p - proc));
    800017d0:	8aa6                	mv	s5,s1
    800017d2:	00006a17          	auipc	s4,0x6
    800017d6:	82ea0a13          	addi	s4,s4,-2002 # 80007000 <etext>
    800017da:	04000937          	lui	s2,0x4000
    800017de:	197d                	addi	s2,s2,-1
    800017e0:	0932                	slli	s2,s2,0xc
  for(p = proc; p < &proc[NPROC]; p++) {
    800017e2:	0002b997          	auipc	s3,0x2b
    800017e6:	46e98993          	addi	s3,s3,1134 # 8002cc50 <tickslock>
      initlock(&p->lock, "proc");
    800017ea:	85da                	mv	a1,s6
    800017ec:	8526                	mv	a0,s1
    800017ee:	b2cff0ef          	jal	ra,80000b1a <initlock>
      p->state = UNUSED;
    800017f2:	0004ac23          	sw	zero,24(s1)
      p->kstack = KSTACK((int) (p - proc));
    800017f6:	415487b3          	sub	a5,s1,s5
    800017fa:	878d                	srai	a5,a5,0x3
    800017fc:	000a3703          	ld	a4,0(s4)
    80001800:	02e787b3          	mul	a5,a5,a4
    80001804:	2785                	addiw	a5,a5,1
    80001806:	00d7979b          	slliw	a5,a5,0xd
    8000180a:	40f907b3          	sub	a5,s2,a5
    8000180e:	e0bc                	sd	a5,64(s1)
  for(p = proc; p < &proc[NPROC]; p++) {
    80001810:	72848493          	addi	s1,s1,1832
    80001814:	fd349be3          	bne	s1,s3,800017ea <procinit+0x66>
  }
}
    80001818:	70e2                	ld	ra,56(sp)
    8000181a:	7442                	ld	s0,48(sp)
    8000181c:	74a2                	ld	s1,40(sp)
    8000181e:	7902                	ld	s2,32(sp)
    80001820:	69e2                	ld	s3,24(sp)
    80001822:	6a42                	ld	s4,16(sp)
    80001824:	6aa2                	ld	s5,8(sp)
    80001826:	6b02                	ld	s6,0(sp)
    80001828:	6121                	addi	sp,sp,64
    8000182a:	8082                	ret

000000008000182c <cpuid>:
// Must be called with interrupts disabled,
// to prevent race with process being moved
// to a different CPU.
int
cpuid()
{
    8000182c:	1141                	addi	sp,sp,-16
    8000182e:	e422                	sd	s0,8(sp)
    80001830:	0800                	addi	s0,sp,16
  asm volatile("mv %0, tp" : "=r" (x) );
    80001832:	8512                	mv	a0,tp
  int id = r_tp();
  return id;
}
    80001834:	2501                	sext.w	a0,a0
    80001836:	6422                	ld	s0,8(sp)
    80001838:	0141                	addi	sp,sp,16
    8000183a:	8082                	ret

000000008000183c <mycpu>:

// Return this CPU's cpu struct.
// Interrupts must be disabled.
struct cpu*
mycpu(void)
{
    8000183c:	1141                	addi	sp,sp,-16
    8000183e:	e422                	sd	s0,8(sp)
    80001840:	0800                	addi	s0,sp,16
    80001842:	8792                	mv	a5,tp
  int id = cpuid();
  struct cpu *c = &cpus[id];
    80001844:	2781                	sext.w	a5,a5
    80001846:	079e                	slli	a5,a5,0x7
  return c;
}
    80001848:	0000e517          	auipc	a0,0xe
    8000184c:	60850513          	addi	a0,a0,1544 # 8000fe50 <cpus>
    80001850:	953e                	add	a0,a0,a5
    80001852:	6422                	ld	s0,8(sp)
    80001854:	0141                	addi	sp,sp,16
    80001856:	8082                	ret

0000000080001858 <myproc>:

// Return the current struct proc *, or zero if none.
struct proc*
myproc(void)
{
    80001858:	1101                	addi	sp,sp,-32
    8000185a:	ec06                	sd	ra,24(sp)
    8000185c:	e822                	sd	s0,16(sp)
    8000185e:	e426                	sd	s1,8(sp)
    80001860:	1000                	addi	s0,sp,32
  push_off();
    80001862:	af8ff0ef          	jal	ra,80000b5a <push_off>
    80001866:	8792                	mv	a5,tp
  struct cpu *c = mycpu();
  struct proc *p = c->proc;
    80001868:	2781                	sext.w	a5,a5
    8000186a:	079e                	slli	a5,a5,0x7
    8000186c:	0000e717          	auipc	a4,0xe
    80001870:	5b470713          	addi	a4,a4,1460 # 8000fe20 <pid_lock>
    80001874:	97ba                	add	a5,a5,a4
    80001876:	7b84                	ld	s1,48(a5)
  pop_off();
    80001878:	b66ff0ef          	jal	ra,80000bde <pop_off>
  return p;
}
    8000187c:	8526                	mv	a0,s1
    8000187e:	60e2                	ld	ra,24(sp)
    80001880:	6442                	ld	s0,16(sp)
    80001882:	64a2                	ld	s1,8(sp)
    80001884:	6105                	addi	sp,sp,32
    80001886:	8082                	ret

0000000080001888 <forkret>:

// A fork child's very first scheduling by scheduler()
// will swtch to forkret.
void
forkret(void)
{
    80001888:	1141                	addi	sp,sp,-16
    8000188a:	e406                	sd	ra,8(sp)
    8000188c:	e022                	sd	s0,0(sp)
    8000188e:	0800                	addi	s0,sp,16
  static int first = 1;

  // Still holding p->lock from scheduler.
  release(&myproc()->lock);
    80001890:	fc9ff0ef          	jal	ra,80001858 <myproc>
    80001894:	b9eff0ef          	jal	ra,80000c32 <release>

  if (first) {
    80001898:	00006797          	auipc	a5,0x6
    8000189c:	3b87a783          	lw	a5,952(a5) # 80007c50 <first.1>
    800018a0:	e799                	bnez	a5,800018ae <forkret+0x26>
    first = 0;
    // ensure other cores see first=0.
    __sync_synchronize();
  }

  usertrapret();
    800018a2:	2bb000ef          	jal	ra,8000235c <usertrapret>
}
    800018a6:	60a2                	ld	ra,8(sp)
    800018a8:	6402                	ld	s0,0(sp)
    800018aa:	0141                	addi	sp,sp,16
    800018ac:	8082                	ret
    fsinit(ROOTDEV);
    800018ae:	4505                	li	a0,1
    800018b0:	636010ef          	jal	ra,80002ee6 <fsinit>
    first = 0;
    800018b4:	00006797          	auipc	a5,0x6
    800018b8:	3807ae23          	sw	zero,924(a5) # 80007c50 <first.1>
    __sync_synchronize();
    800018bc:	0ff0000f          	fence
    800018c0:	b7cd                	j	800018a2 <forkret+0x1a>

00000000800018c2 <allocpid>:
{
    800018c2:	1101                	addi	sp,sp,-32
    800018c4:	ec06                	sd	ra,24(sp)
    800018c6:	e822                	sd	s0,16(sp)
    800018c8:	e426                	sd	s1,8(sp)
    800018ca:	e04a                	sd	s2,0(sp)
    800018cc:	1000                	addi	s0,sp,32
  acquire(&pid_lock);
    800018ce:	0000e917          	auipc	s2,0xe
    800018d2:	55290913          	addi	s2,s2,1362 # 8000fe20 <pid_lock>
    800018d6:	854a                	mv	a0,s2
    800018d8:	ac2ff0ef          	jal	ra,80000b9a <acquire>
  pid = nextpid;
    800018dc:	00006797          	auipc	a5,0x6
    800018e0:	37878793          	addi	a5,a5,888 # 80007c54 <nextpid>
    800018e4:	4384                	lw	s1,0(a5)
  nextpid = nextpid + 1;
    800018e6:	0014871b          	addiw	a4,s1,1
    800018ea:	c398                	sw	a4,0(a5)
  release(&pid_lock);
    800018ec:	854a                	mv	a0,s2
    800018ee:	b44ff0ef          	jal	ra,80000c32 <release>
}
    800018f2:	8526                	mv	a0,s1
    800018f4:	60e2                	ld	ra,24(sp)
    800018f6:	6442                	ld	s0,16(sp)
    800018f8:	64a2                	ld	s1,8(sp)
    800018fa:	6902                	ld	s2,0(sp)
    800018fc:	6105                	addi	sp,sp,32
    800018fe:	8082                	ret

0000000080001900 <proc_pagetable>:
{
    80001900:	1101                	addi	sp,sp,-32
    80001902:	ec06                	sd	ra,24(sp)
    80001904:	e822                	sd	s0,16(sp)
    80001906:	e426                	sd	s1,8(sp)
    80001908:	e04a                	sd	s2,0(sp)
    8000190a:	1000                	addi	s0,sp,32
    8000190c:	892a                	mv	s2,a0
  pagetable = uvmcreate();
    8000190e:	933ff0ef          	jal	ra,80001240 <uvmcreate>
    80001912:	84aa                	mv	s1,a0
  if(pagetable == 0)
    80001914:	cd05                	beqz	a0,8000194c <proc_pagetable+0x4c>
  if(mappages(pagetable, TRAMPOLINE, PGSIZE,
    80001916:	4729                	li	a4,10
    80001918:	00004697          	auipc	a3,0x4
    8000191c:	6e868693          	addi	a3,a3,1768 # 80006000 <_trampoline>
    80001920:	6605                	lui	a2,0x1
    80001922:	040005b7          	lui	a1,0x4000
    80001926:	15fd                	addi	a1,a1,-1
    80001928:	05b2                	slli	a1,a1,0xc
    8000192a:	ec4ff0ef          	jal	ra,80000fee <mappages>
    8000192e:	02054663          	bltz	a0,8000195a <proc_pagetable+0x5a>
  if(mappages(pagetable, TRAPFRAME, PGSIZE,
    80001932:	4719                	li	a4,6
    80001934:	05893683          	ld	a3,88(s2)
    80001938:	6605                	lui	a2,0x1
    8000193a:	020005b7          	lui	a1,0x2000
    8000193e:	15fd                	addi	a1,a1,-1
    80001940:	05b6                	slli	a1,a1,0xd
    80001942:	8526                	mv	a0,s1
    80001944:	eaaff0ef          	jal	ra,80000fee <mappages>
    80001948:	00054f63          	bltz	a0,80001966 <proc_pagetable+0x66>
}
    8000194c:	8526                	mv	a0,s1
    8000194e:	60e2                	ld	ra,24(sp)
    80001950:	6442                	ld	s0,16(sp)
    80001952:	64a2                	ld	s1,8(sp)
    80001954:	6902                	ld	s2,0(sp)
    80001956:	6105                	addi	sp,sp,32
    80001958:	8082                	ret
    uvmfree(pagetable, 0);
    8000195a:	4581                	li	a1,0
    8000195c:	8526                	mv	a0,s1
    8000195e:	aa3ff0ef          	jal	ra,80001400 <uvmfree>
    return 0;
    80001962:	4481                	li	s1,0
    80001964:	b7e5                	j	8000194c <proc_pagetable+0x4c>
    uvmunmap(pagetable, TRAMPOLINE, 1, 0);
    80001966:	4681                	li	a3,0
    80001968:	4605                	li	a2,1
    8000196a:	040005b7          	lui	a1,0x4000
    8000196e:	15fd                	addi	a1,a1,-1
    80001970:	05b2                	slli	a1,a1,0xc
    80001972:	8526                	mv	a0,s1
    80001974:	821ff0ef          	jal	ra,80001194 <uvmunmap>
    uvmfree(pagetable, 0);
    80001978:	4581                	li	a1,0
    8000197a:	8526                	mv	a0,s1
    8000197c:	a85ff0ef          	jal	ra,80001400 <uvmfree>
    return 0;
    80001980:	4481                	li	s1,0
    80001982:	b7e9                	j	8000194c <proc_pagetable+0x4c>

0000000080001984 <proc_freepagetable>:
{
    80001984:	1101                	addi	sp,sp,-32
    80001986:	ec06                	sd	ra,24(sp)
    80001988:	e822                	sd	s0,16(sp)
    8000198a:	e426                	sd	s1,8(sp)
    8000198c:	e04a                	sd	s2,0(sp)
    8000198e:	1000                	addi	s0,sp,32
    80001990:	84aa                	mv	s1,a0
    80001992:	892e                	mv	s2,a1
  uvmunmap(pagetable, TRAMPOLINE, 1, 0);
    80001994:	4681                	li	a3,0
    80001996:	4605                	li	a2,1
    80001998:	040005b7          	lui	a1,0x4000
    8000199c:	15fd                	addi	a1,a1,-1
    8000199e:	05b2                	slli	a1,a1,0xc
    800019a0:	ff4ff0ef          	jal	ra,80001194 <uvmunmap>
  uvmunmap(pagetable, TRAPFRAME, 1, 0);
    800019a4:	4681                	li	a3,0
    800019a6:	4605                	li	a2,1
    800019a8:	020005b7          	lui	a1,0x2000
    800019ac:	15fd                	addi	a1,a1,-1
    800019ae:	05b6                	slli	a1,a1,0xd
    800019b0:	8526                	mv	a0,s1
    800019b2:	fe2ff0ef          	jal	ra,80001194 <uvmunmap>
  uvmfree(pagetable, sz);
    800019b6:	85ca                	mv	a1,s2
    800019b8:	8526                	mv	a0,s1
    800019ba:	a47ff0ef          	jal	ra,80001400 <uvmfree>
}
    800019be:	60e2                	ld	ra,24(sp)
    800019c0:	6442                	ld	s0,16(sp)
    800019c2:	64a2                	ld	s1,8(sp)
    800019c4:	6902                	ld	s2,0(sp)
    800019c6:	6105                	addi	sp,sp,32
    800019c8:	8082                	ret

00000000800019ca <freeproc>:
{
    800019ca:	1101                	addi	sp,sp,-32
    800019cc:	ec06                	sd	ra,24(sp)
    800019ce:	e822                	sd	s0,16(sp)
    800019d0:	e426                	sd	s1,8(sp)
    800019d2:	1000                	addi	s0,sp,32
    800019d4:	84aa                	mv	s1,a0
  if(p->trapframe)
    800019d6:	6d28                	ld	a0,88(a0)
    800019d8:	c119                	beqz	a0,800019de <freeproc+0x14>
    kfree((void*)p->trapframe);
    800019da:	810ff0ef          	jal	ra,800009ea <kfree>
  p->trapframe = 0;
    800019de:	0404bc23          	sd	zero,88(s1)
  if(p->pagetable)
    800019e2:	68a8                	ld	a0,80(s1)
    800019e4:	c501                	beqz	a0,800019ec <freeproc+0x22>
    proc_freepagetable(p->pagetable, p->sz);
    800019e6:	64ac                	ld	a1,72(s1)
    800019e8:	f9dff0ef          	jal	ra,80001984 <proc_freepagetable>
  p->pagetable = 0;
    800019ec:	0404b823          	sd	zero,80(s1)
  p->sz = 0;
    800019f0:	0404b423          	sd	zero,72(s1)
  p->pid = 0;
    800019f4:	0204a823          	sw	zero,48(s1)
  p->parent = 0;
    800019f8:	0204bc23          	sd	zero,56(s1)
  p->name[0] = 0;
    800019fc:	70048c23          	sb	zero,1816(s1)
  p->chan = 0;
    80001a00:	0204b023          	sd	zero,32(s1)
  p->killed = 0;
    80001a04:	0204a423          	sw	zero,40(s1)
  p->xstate = 0;
    80001a08:	0204a623          	sw	zero,44(s1)
  p->state = UNUSED;
    80001a0c:	0004ac23          	sw	zero,24(s1)
}
    80001a10:	60e2                	ld	ra,24(sp)
    80001a12:	6442                	ld	s0,16(sp)
    80001a14:	64a2                	ld	s1,8(sp)
    80001a16:	6105                	addi	sp,sp,32
    80001a18:	8082                	ret

0000000080001a1a <allocproc>:
{
    80001a1a:	1101                	addi	sp,sp,-32
    80001a1c:	ec06                	sd	ra,24(sp)
    80001a1e:	e822                	sd	s0,16(sp)
    80001a20:	e426                	sd	s1,8(sp)
    80001a22:	e04a                	sd	s2,0(sp)
    80001a24:	1000                	addi	s0,sp,32
  for(p = proc; p < &proc[NPROC]; p++) {
    80001a26:	0000f497          	auipc	s1,0xf
    80001a2a:	82a48493          	addi	s1,s1,-2006 # 80010250 <proc>
    80001a2e:	0002b917          	auipc	s2,0x2b
    80001a32:	22290913          	addi	s2,s2,546 # 8002cc50 <tickslock>
    acquire(&p->lock);
    80001a36:	8526                	mv	a0,s1
    80001a38:	962ff0ef          	jal	ra,80000b9a <acquire>
    if(p->state == UNUSED) {
    80001a3c:	4c9c                	lw	a5,24(s1)
    80001a3e:	cb91                	beqz	a5,80001a52 <allocproc+0x38>
      release(&p->lock);
    80001a40:	8526                	mv	a0,s1
    80001a42:	9f0ff0ef          	jal	ra,80000c32 <release>
  for(p = proc; p < &proc[NPROC]; p++) {
    80001a46:	72848493          	addi	s1,s1,1832
    80001a4a:	ff2496e3          	bne	s1,s2,80001a36 <allocproc+0x1c>
  return 0;
    80001a4e:	4481                	li	s1,0
    80001a50:	a089                	j	80001a92 <allocproc+0x78>
  p->pid = allocpid();
    80001a52:	e71ff0ef          	jal	ra,800018c2 <allocpid>
    80001a56:	d888                	sw	a0,48(s1)
  p->state = USED;
    80001a58:	4785                	li	a5,1
    80001a5a:	cc9c                	sw	a5,24(s1)
  if((p->trapframe = (struct trapframe *)kalloc()) == 0){
    80001a5c:	86eff0ef          	jal	ra,80000aca <kalloc>
    80001a60:	892a                	mv	s2,a0
    80001a62:	eca8                	sd	a0,88(s1)
    80001a64:	cd15                	beqz	a0,80001aa0 <allocproc+0x86>
  p->pagetable = proc_pagetable(p);
    80001a66:	8526                	mv	a0,s1
    80001a68:	e99ff0ef          	jal	ra,80001900 <proc_pagetable>
    80001a6c:	892a                	mv	s2,a0
    80001a6e:	e8a8                	sd	a0,80(s1)
  if(p->pagetable == 0){
    80001a70:	c121                	beqz	a0,80001ab0 <allocproc+0x96>
  memset(&p->context, 0, sizeof(p->context));
    80001a72:	07000613          	li	a2,112
    80001a76:	4581                	li	a1,0
    80001a78:	06048513          	addi	a0,s1,96
    80001a7c:	9f2ff0ef          	jal	ra,80000c6e <memset>
  p->context.ra = (uint64)forkret;
    80001a80:	00000797          	auipc	a5,0x0
    80001a84:	e0878793          	addi	a5,a5,-504 # 80001888 <forkret>
    80001a88:	f0bc                	sd	a5,96(s1)
  p->context.sp = p->kstack + PGSIZE;
    80001a8a:	60bc                	ld	a5,64(s1)
    80001a8c:	6705                	lui	a4,0x1
    80001a8e:	97ba                	add	a5,a5,a4
    80001a90:	f4bc                	sd	a5,104(s1)
}
    80001a92:	8526                	mv	a0,s1
    80001a94:	60e2                	ld	ra,24(sp)
    80001a96:	6442                	ld	s0,16(sp)
    80001a98:	64a2                	ld	s1,8(sp)
    80001a9a:	6902                	ld	s2,0(sp)
    80001a9c:	6105                	addi	sp,sp,32
    80001a9e:	8082                	ret
    freeproc(p);
    80001aa0:	8526                	mv	a0,s1
    80001aa2:	f29ff0ef          	jal	ra,800019ca <freeproc>
    release(&p->lock);
    80001aa6:	8526                	mv	a0,s1
    80001aa8:	98aff0ef          	jal	ra,80000c32 <release>
    return 0;
    80001aac:	84ca                	mv	s1,s2
    80001aae:	b7d5                	j	80001a92 <allocproc+0x78>
    freeproc(p);
    80001ab0:	8526                	mv	a0,s1
    80001ab2:	f19ff0ef          	jal	ra,800019ca <freeproc>
    release(&p->lock);
    80001ab6:	8526                	mv	a0,s1
    80001ab8:	97aff0ef          	jal	ra,80000c32 <release>
    return 0;
    80001abc:	84ca                	mv	s1,s2
    80001abe:	bfd1                	j	80001a92 <allocproc+0x78>

0000000080001ac0 <userinit>:
{
    80001ac0:	1101                	addi	sp,sp,-32
    80001ac2:	ec06                	sd	ra,24(sp)
    80001ac4:	e822                	sd	s0,16(sp)
    80001ac6:	e426                	sd	s1,8(sp)
    80001ac8:	1000                	addi	s0,sp,32
  p = allocproc();
    80001aca:	f51ff0ef          	jal	ra,80001a1a <allocproc>
    80001ace:	84aa                	mv	s1,a0
  initproc = p;
    80001ad0:	00006797          	auipc	a5,0x6
    80001ad4:	20a7bc23          	sd	a0,536(a5) # 80007ce8 <initproc>
  uvmfirst(p->pagetable, initcode, sizeof(initcode));
    80001ad8:	03400613          	li	a2,52
    80001adc:	00006597          	auipc	a1,0x6
    80001ae0:	18458593          	addi	a1,a1,388 # 80007c60 <initcode>
    80001ae4:	6928                	ld	a0,80(a0)
    80001ae6:	f80ff0ef          	jal	ra,80001266 <uvmfirst>
  p->sz = PGSIZE;
    80001aea:	6785                	lui	a5,0x1
    80001aec:	e4bc                	sd	a5,72(s1)
  p->trapframe->epc = 0;      // user program counter
    80001aee:	6cb8                	ld	a4,88(s1)
    80001af0:	00073c23          	sd	zero,24(a4) # 1018 <_entry-0x7fffefe8>
  p->trapframe->sp = PGSIZE;  // user stack pointer
    80001af4:	6cb8                	ld	a4,88(s1)
    80001af6:	fb1c                	sd	a5,48(a4)
  safestrcpy(p->name, "initcode", sizeof(p->name));
    80001af8:	4641                	li	a2,16
    80001afa:	00005597          	auipc	a1,0x5
    80001afe:	75658593          	addi	a1,a1,1878 # 80007250 <digits+0x218>
    80001b02:	71848513          	addi	a0,s1,1816
    80001b06:	aaeff0ef          	jal	ra,80000db4 <safestrcpy>
  p->cwd = namei("/");
    80001b0a:	00005517          	auipc	a0,0x5
    80001b0e:	75650513          	addi	a0,a0,1878 # 80007260 <digits+0x228>
    80001b12:	4b3010ef          	jal	ra,800037c4 <namei>
    80001b16:	70a4b823          	sd	a0,1808(s1)
  p->state = RUNNABLE;
    80001b1a:	478d                	li	a5,3
    80001b1c:	cc9c                	sw	a5,24(s1)
  release(&p->lock);
    80001b1e:	8526                	mv	a0,s1
    80001b20:	912ff0ef          	jal	ra,80000c32 <release>
}
    80001b24:	60e2                	ld	ra,24(sp)
    80001b26:	6442                	ld	s0,16(sp)
    80001b28:	64a2                	ld	s1,8(sp)
    80001b2a:	6105                	addi	sp,sp,32
    80001b2c:	8082                	ret

0000000080001b2e <growproc>:
{
    80001b2e:	1101                	addi	sp,sp,-32
    80001b30:	ec06                	sd	ra,24(sp)
    80001b32:	e822                	sd	s0,16(sp)
    80001b34:	e426                	sd	s1,8(sp)
    80001b36:	e04a                	sd	s2,0(sp)
    80001b38:	1000                	addi	s0,sp,32
    80001b3a:	892a                	mv	s2,a0
  struct proc *p = myproc();
    80001b3c:	d1dff0ef          	jal	ra,80001858 <myproc>
    80001b40:	84aa                	mv	s1,a0
  sz = p->sz;
    80001b42:	652c                	ld	a1,72(a0)
  if(n > 0){
    80001b44:	01204c63          	bgtz	s2,80001b5c <growproc+0x2e>
  } else if(n < 0){
    80001b48:	02094463          	bltz	s2,80001b70 <growproc+0x42>
  p->sz = sz;
    80001b4c:	e4ac                	sd	a1,72(s1)
  return 0;
    80001b4e:	4501                	li	a0,0
}
    80001b50:	60e2                	ld	ra,24(sp)
    80001b52:	6442                	ld	s0,16(sp)
    80001b54:	64a2                	ld	s1,8(sp)
    80001b56:	6902                	ld	s2,0(sp)
    80001b58:	6105                	addi	sp,sp,32
    80001b5a:	8082                	ret
    if((sz = uvmalloc(p->pagetable, sz, sz + n, PTE_W)) == 0) {
    80001b5c:	4691                	li	a3,4
    80001b5e:	00b90633          	add	a2,s2,a1
    80001b62:	6928                	ld	a0,80(a0)
    80001b64:	fa4ff0ef          	jal	ra,80001308 <uvmalloc>
    80001b68:	85aa                	mv	a1,a0
    80001b6a:	f16d                	bnez	a0,80001b4c <growproc+0x1e>
      return -1;
    80001b6c:	557d                	li	a0,-1
    80001b6e:	b7cd                	j	80001b50 <growproc+0x22>
    sz = uvmdealloc(p->pagetable, sz, sz + n);
    80001b70:	00b90633          	add	a2,s2,a1
    80001b74:	6928                	ld	a0,80(a0)
    80001b76:	f4eff0ef          	jal	ra,800012c4 <uvmdealloc>
    80001b7a:	85aa                	mv	a1,a0
    80001b7c:	bfc1                	j	80001b4c <growproc+0x1e>

0000000080001b7e <fork>:
{
    80001b7e:	7139                	addi	sp,sp,-64
    80001b80:	fc06                	sd	ra,56(sp)
    80001b82:	f822                	sd	s0,48(sp)
    80001b84:	f426                	sd	s1,40(sp)
    80001b86:	f04a                	sd	s2,32(sp)
    80001b88:	ec4e                	sd	s3,24(sp)
    80001b8a:	e852                	sd	s4,16(sp)
    80001b8c:	e456                	sd	s5,8(sp)
    80001b8e:	0080                	addi	s0,sp,64
  struct proc *p = myproc();
    80001b90:	cc9ff0ef          	jal	ra,80001858 <myproc>
    80001b94:	8aaa                	mv	s5,a0
  if((np = allocproc()) == 0){
    80001b96:	e85ff0ef          	jal	ra,80001a1a <allocproc>
    80001b9a:	0e050663          	beqz	a0,80001c86 <fork+0x108>
    80001b9e:	8a2a                	mv	s4,a0
  if(uvmcopy(p->pagetable, np->pagetable, p->sz) < 0){
    80001ba0:	048ab603          	ld	a2,72(s5)
    80001ba4:	692c                	ld	a1,80(a0)
    80001ba6:	050ab503          	ld	a0,80(s5)
    80001baa:	887ff0ef          	jal	ra,80001430 <uvmcopy>
    80001bae:	04054863          	bltz	a0,80001bfe <fork+0x80>
  np->sz = p->sz;
    80001bb2:	048ab783          	ld	a5,72(s5)
    80001bb6:	04fa3423          	sd	a5,72(s4)
  *(np->trapframe) = *(p->trapframe);
    80001bba:	058ab683          	ld	a3,88(s5)
    80001bbe:	87b6                	mv	a5,a3
    80001bc0:	058a3703          	ld	a4,88(s4)
    80001bc4:	12068693          	addi	a3,a3,288
    80001bc8:	0007b803          	ld	a6,0(a5) # 1000 <_entry-0x7ffff000>
    80001bcc:	6788                	ld	a0,8(a5)
    80001bce:	6b8c                	ld	a1,16(a5)
    80001bd0:	6f90                	ld	a2,24(a5)
    80001bd2:	01073023          	sd	a6,0(a4)
    80001bd6:	e708                	sd	a0,8(a4)
    80001bd8:	eb0c                	sd	a1,16(a4)
    80001bda:	ef10                	sd	a2,24(a4)
    80001bdc:	02078793          	addi	a5,a5,32
    80001be0:	02070713          	addi	a4,a4,32
    80001be4:	fed792e3          	bne	a5,a3,80001bc8 <fork+0x4a>
  np->trapframe->a0 = 0;
    80001be8:	058a3783          	ld	a5,88(s4)
    80001bec:	0607b823          	sd	zero,112(a5)
  for(i = 0; i < NOFILE; i++)
    80001bf0:	0d0a8493          	addi	s1,s5,208
    80001bf4:	0d0a0913          	addi	s2,s4,208
    80001bf8:	710a8993          	addi	s3,s5,1808
    80001bfc:	a00d                	j	80001c1e <fork+0xa0>
    freeproc(np);
    80001bfe:	8552                	mv	a0,s4
    80001c00:	dcbff0ef          	jal	ra,800019ca <freeproc>
    release(&np->lock);
    80001c04:	8552                	mv	a0,s4
    80001c06:	82cff0ef          	jal	ra,80000c32 <release>
    return -1;
    80001c0a:	597d                	li	s2,-1
    80001c0c:	a09d                	j	80001c72 <fork+0xf4>
      np->ofile[i] = filedup(p->ofile[i]);
    80001c0e:	1e2020ef          	jal	ra,80003df0 <filedup>
    80001c12:	00a93023          	sd	a0,0(s2)
  for(i = 0; i < NOFILE; i++)
    80001c16:	04a1                	addi	s1,s1,8
    80001c18:	0921                	addi	s2,s2,8
    80001c1a:	01348563          	beq	s1,s3,80001c24 <fork+0xa6>
    if(p->ofile[i])
    80001c1e:	6088                	ld	a0,0(s1)
    80001c20:	f57d                	bnez	a0,80001c0e <fork+0x90>
    80001c22:	bfd5                	j	80001c16 <fork+0x98>
  np->cwd = idup(p->cwd);
    80001c24:	710ab503          	ld	a0,1808(s5)
    80001c28:	4b4010ef          	jal	ra,800030dc <idup>
    80001c2c:	70aa3823          	sd	a0,1808(s4)
  safestrcpy(np->name, p->name, sizeof(p->name));
    80001c30:	4641                	li	a2,16
    80001c32:	718a8593          	addi	a1,s5,1816
    80001c36:	718a0513          	addi	a0,s4,1816
    80001c3a:	97aff0ef          	jal	ra,80000db4 <safestrcpy>
  pid = np->pid;
    80001c3e:	030a2903          	lw	s2,48(s4)
  release(&np->lock);
    80001c42:	8552                	mv	a0,s4
    80001c44:	feffe0ef          	jal	ra,80000c32 <release>
  acquire(&wait_lock);
    80001c48:	0000e497          	auipc	s1,0xe
    80001c4c:	1f048493          	addi	s1,s1,496 # 8000fe38 <wait_lock>
    80001c50:	8526                	mv	a0,s1
    80001c52:	f49fe0ef          	jal	ra,80000b9a <acquire>
  np->parent = p;
    80001c56:	035a3c23          	sd	s5,56(s4)
  release(&wait_lock);
    80001c5a:	8526                	mv	a0,s1
    80001c5c:	fd7fe0ef          	jal	ra,80000c32 <release>
  acquire(&np->lock);
    80001c60:	8552                	mv	a0,s4
    80001c62:	f39fe0ef          	jal	ra,80000b9a <acquire>
  np->state = RUNNABLE;
    80001c66:	478d                	li	a5,3
    80001c68:	00fa2c23          	sw	a5,24(s4)
  release(&np->lock);
    80001c6c:	8552                	mv	a0,s4
    80001c6e:	fc5fe0ef          	jal	ra,80000c32 <release>
}
    80001c72:	854a                	mv	a0,s2
    80001c74:	70e2                	ld	ra,56(sp)
    80001c76:	7442                	ld	s0,48(sp)
    80001c78:	74a2                	ld	s1,40(sp)
    80001c7a:	7902                	ld	s2,32(sp)
    80001c7c:	69e2                	ld	s3,24(sp)
    80001c7e:	6a42                	ld	s4,16(sp)
    80001c80:	6aa2                	ld	s5,8(sp)
    80001c82:	6121                	addi	sp,sp,64
    80001c84:	8082                	ret
    return -1;
    80001c86:	597d                	li	s2,-1
    80001c88:	b7ed                	j	80001c72 <fork+0xf4>

0000000080001c8a <scheduler>:
{
    80001c8a:	715d                	addi	sp,sp,-80
    80001c8c:	e486                	sd	ra,72(sp)
    80001c8e:	e0a2                	sd	s0,64(sp)
    80001c90:	fc26                	sd	s1,56(sp)
    80001c92:	f84a                	sd	s2,48(sp)
    80001c94:	f44e                	sd	s3,40(sp)
    80001c96:	f052                	sd	s4,32(sp)
    80001c98:	ec56                	sd	s5,24(sp)
    80001c9a:	e85a                	sd	s6,16(sp)
    80001c9c:	e45e                	sd	s7,8(sp)
    80001c9e:	e062                	sd	s8,0(sp)
    80001ca0:	0880                	addi	s0,sp,80
    80001ca2:	8792                	mv	a5,tp
  int id = r_tp();
    80001ca4:	2781                	sext.w	a5,a5
  c->proc = 0;
    80001ca6:	00779b13          	slli	s6,a5,0x7
    80001caa:	0000e717          	auipc	a4,0xe
    80001cae:	17670713          	addi	a4,a4,374 # 8000fe20 <pid_lock>
    80001cb2:	975a                	add	a4,a4,s6
    80001cb4:	02073823          	sd	zero,48(a4)
        swtch(&c->context, &p->context);
    80001cb8:	0000e717          	auipc	a4,0xe
    80001cbc:	1a070713          	addi	a4,a4,416 # 8000fe58 <cpus+0x8>
    80001cc0:	9b3a                	add	s6,s6,a4
        p->state = RUNNING;
    80001cc2:	4c11                	li	s8,4
        c->proc = p;
    80001cc4:	079e                	slli	a5,a5,0x7
    80001cc6:	0000ea17          	auipc	s4,0xe
    80001cca:	15aa0a13          	addi	s4,s4,346 # 8000fe20 <pid_lock>
    80001cce:	9a3e                	add	s4,s4,a5
        found = 1;
    80001cd0:	4b85                	li	s7,1
    for(p = proc; p < &proc[NPROC]; p++) {
    80001cd2:	0002b997          	auipc	s3,0x2b
    80001cd6:	f7e98993          	addi	s3,s3,-130 # 8002cc50 <tickslock>
    80001cda:	a0a9                	j	80001d24 <scheduler+0x9a>
      release(&p->lock);
    80001cdc:	8526                	mv	a0,s1
    80001cde:	f55fe0ef          	jal	ra,80000c32 <release>
    for(p = proc; p < &proc[NPROC]; p++) {
    80001ce2:	72848493          	addi	s1,s1,1832
    80001ce6:	03348563          	beq	s1,s3,80001d10 <scheduler+0x86>
      acquire(&p->lock);
    80001cea:	8526                	mv	a0,s1
    80001cec:	eaffe0ef          	jal	ra,80000b9a <acquire>
      if(p->state == RUNNABLE) {
    80001cf0:	4c9c                	lw	a5,24(s1)
    80001cf2:	ff2795e3          	bne	a5,s2,80001cdc <scheduler+0x52>
        p->state = RUNNING;
    80001cf6:	0184ac23          	sw	s8,24(s1)
        c->proc = p;
    80001cfa:	029a3823          	sd	s1,48(s4)
        swtch(&c->context, &p->context);
    80001cfe:	06048593          	addi	a1,s1,96
    80001d02:	855a                	mv	a0,s6
    80001d04:	5b2000ef          	jal	ra,800022b6 <swtch>
        c->proc = 0;
    80001d08:	020a3823          	sd	zero,48(s4)
        found = 1;
    80001d0c:	8ade                	mv	s5,s7
    80001d0e:	b7f9                	j	80001cdc <scheduler+0x52>
    if(found == 0) {
    80001d10:	000a9a63          	bnez	s5,80001d24 <scheduler+0x9a>
  asm volatile("csrr %0, sstatus" : "=r" (x) );
    80001d14:	100027f3          	csrr	a5,sstatus
  w_sstatus(r_sstatus() | SSTATUS_SIE);
    80001d18:	0027e793          	ori	a5,a5,2
  asm volatile("csrw sstatus, %0" : : "r" (x));
    80001d1c:	10079073          	csrw	sstatus,a5
      asm volatile("wfi");
    80001d20:	10500073          	wfi
  asm volatile("csrr %0, sstatus" : "=r" (x) );
    80001d24:	100027f3          	csrr	a5,sstatus
  w_sstatus(r_sstatus() | SSTATUS_SIE);
    80001d28:	0027e793          	ori	a5,a5,2
  asm volatile("csrw sstatus, %0" : : "r" (x));
    80001d2c:	10079073          	csrw	sstatus,a5
    int found = 0;
    80001d30:	4a81                	li	s5,0
    for(p = proc; p < &proc[NPROC]; p++) {
    80001d32:	0000e497          	auipc	s1,0xe
    80001d36:	51e48493          	addi	s1,s1,1310 # 80010250 <proc>
      if(p->state == RUNNABLE) {
    80001d3a:	490d                	li	s2,3
    80001d3c:	b77d                	j	80001cea <scheduler+0x60>

0000000080001d3e <sched>:
{
    80001d3e:	7179                	addi	sp,sp,-48
    80001d40:	f406                	sd	ra,40(sp)
    80001d42:	f022                	sd	s0,32(sp)
    80001d44:	ec26                	sd	s1,24(sp)
    80001d46:	e84a                	sd	s2,16(sp)
    80001d48:	e44e                	sd	s3,8(sp)
    80001d4a:	1800                	addi	s0,sp,48
  struct proc *p = myproc();
    80001d4c:	b0dff0ef          	jal	ra,80001858 <myproc>
    80001d50:	84aa                	mv	s1,a0
  if(!holding(&p->lock))
    80001d52:	ddffe0ef          	jal	ra,80000b30 <holding>
    80001d56:	c92d                	beqz	a0,80001dc8 <sched+0x8a>
  asm volatile("mv %0, tp" : "=r" (x) );
    80001d58:	8792                	mv	a5,tp
  if(mycpu()->noff != 1)
    80001d5a:	2781                	sext.w	a5,a5
    80001d5c:	079e                	slli	a5,a5,0x7
    80001d5e:	0000e717          	auipc	a4,0xe
    80001d62:	0c270713          	addi	a4,a4,194 # 8000fe20 <pid_lock>
    80001d66:	97ba                	add	a5,a5,a4
    80001d68:	0a87a703          	lw	a4,168(a5)
    80001d6c:	4785                	li	a5,1
    80001d6e:	06f71363          	bne	a4,a5,80001dd4 <sched+0x96>
  if(p->state == RUNNING)
    80001d72:	4c98                	lw	a4,24(s1)
    80001d74:	4791                	li	a5,4
    80001d76:	06f70563          	beq	a4,a5,80001de0 <sched+0xa2>
  asm volatile("csrr %0, sstatus" : "=r" (x) );
    80001d7a:	100027f3          	csrr	a5,sstatus
  return (x & SSTATUS_SIE) != 0;
    80001d7e:	8b89                	andi	a5,a5,2
  if(intr_get())
    80001d80:	e7b5                	bnez	a5,80001dec <sched+0xae>
  asm volatile("mv %0, tp" : "=r" (x) );
    80001d82:	8792                	mv	a5,tp
  intena = mycpu()->intena;
    80001d84:	0000e917          	auipc	s2,0xe
    80001d88:	09c90913          	addi	s2,s2,156 # 8000fe20 <pid_lock>
    80001d8c:	2781                	sext.w	a5,a5
    80001d8e:	079e                	slli	a5,a5,0x7
    80001d90:	97ca                	add	a5,a5,s2
    80001d92:	0ac7a983          	lw	s3,172(a5)
    80001d96:	8792                	mv	a5,tp
  swtch(&p->context, &mycpu()->context);
    80001d98:	2781                	sext.w	a5,a5
    80001d9a:	079e                	slli	a5,a5,0x7
    80001d9c:	0000e597          	auipc	a1,0xe
    80001da0:	0bc58593          	addi	a1,a1,188 # 8000fe58 <cpus+0x8>
    80001da4:	95be                	add	a1,a1,a5
    80001da6:	06048513          	addi	a0,s1,96
    80001daa:	50c000ef          	jal	ra,800022b6 <swtch>
    80001dae:	8792                	mv	a5,tp
  mycpu()->intena = intena;
    80001db0:	2781                	sext.w	a5,a5
    80001db2:	079e                	slli	a5,a5,0x7
    80001db4:	97ca                	add	a5,a5,s2
    80001db6:	0b37a623          	sw	s3,172(a5)
}
    80001dba:	70a2                	ld	ra,40(sp)
    80001dbc:	7402                	ld	s0,32(sp)
    80001dbe:	64e2                	ld	s1,24(sp)
    80001dc0:	6942                	ld	s2,16(sp)
    80001dc2:	69a2                	ld	s3,8(sp)
    80001dc4:	6145                	addi	sp,sp,48
    80001dc6:	8082                	ret
    panic("sched p->lock");
    80001dc8:	00005517          	auipc	a0,0x5
    80001dcc:	4a050513          	addi	a0,a0,1184 # 80007268 <digits+0x230>
    80001dd0:	987fe0ef          	jal	ra,80000756 <panic>
    panic("sched locks");
    80001dd4:	00005517          	auipc	a0,0x5
    80001dd8:	4a450513          	addi	a0,a0,1188 # 80007278 <digits+0x240>
    80001ddc:	97bfe0ef          	jal	ra,80000756 <panic>
    panic("sched running");
    80001de0:	00005517          	auipc	a0,0x5
    80001de4:	4a850513          	addi	a0,a0,1192 # 80007288 <digits+0x250>
    80001de8:	96ffe0ef          	jal	ra,80000756 <panic>
    panic("sched interruptible");
    80001dec:	00005517          	auipc	a0,0x5
    80001df0:	4ac50513          	addi	a0,a0,1196 # 80007298 <digits+0x260>
    80001df4:	963fe0ef          	jal	ra,80000756 <panic>

0000000080001df8 <yield>:
{
    80001df8:	1101                	addi	sp,sp,-32
    80001dfa:	ec06                	sd	ra,24(sp)
    80001dfc:	e822                	sd	s0,16(sp)
    80001dfe:	e426                	sd	s1,8(sp)
    80001e00:	1000                	addi	s0,sp,32
  struct proc *p = myproc();
    80001e02:	a57ff0ef          	jal	ra,80001858 <myproc>
    80001e06:	84aa                	mv	s1,a0
  acquire(&p->lock);
    80001e08:	d93fe0ef          	jal	ra,80000b9a <acquire>
  p->state = RUNNABLE;
    80001e0c:	478d                	li	a5,3
    80001e0e:	cc9c                	sw	a5,24(s1)
  sched();
    80001e10:	f2fff0ef          	jal	ra,80001d3e <sched>
  release(&p->lock);
    80001e14:	8526                	mv	a0,s1
    80001e16:	e1dfe0ef          	jal	ra,80000c32 <release>
}
    80001e1a:	60e2                	ld	ra,24(sp)
    80001e1c:	6442                	ld	s0,16(sp)
    80001e1e:	64a2                	ld	s1,8(sp)
    80001e20:	6105                	addi	sp,sp,32
    80001e22:	8082                	ret

0000000080001e24 <sleep>:

// Atomically release lock and sleep on chan.
// Reacquires lock when awakened.
void
sleep(void *chan, struct spinlock *lk)
{
    80001e24:	7179                	addi	sp,sp,-48
    80001e26:	f406                	sd	ra,40(sp)
    80001e28:	f022                	sd	s0,32(sp)
    80001e2a:	ec26                	sd	s1,24(sp)
    80001e2c:	e84a                	sd	s2,16(sp)
    80001e2e:	e44e                	sd	s3,8(sp)
    80001e30:	1800                	addi	s0,sp,48
    80001e32:	89aa                	mv	s3,a0
    80001e34:	892e                	mv	s2,a1
  struct proc *p = myproc();
    80001e36:	a23ff0ef          	jal	ra,80001858 <myproc>
    80001e3a:	84aa                	mv	s1,a0
  // Once we hold p->lock, we can be
  // guaranteed that we won't miss any wakeup
  // (wakeup locks p->lock),
  // so it's okay to release lk.

  acquire(&p->lock);  //DOC: sleeplock1
    80001e3c:	d5ffe0ef          	jal	ra,80000b9a <acquire>
  release(lk);
    80001e40:	854a                	mv	a0,s2
    80001e42:	df1fe0ef          	jal	ra,80000c32 <release>

  // Go to sleep.
  p->chan = chan;
    80001e46:	0334b023          	sd	s3,32(s1)
  p->state = SLEEPING;
    80001e4a:	4789                	li	a5,2
    80001e4c:	cc9c                	sw	a5,24(s1)

  sched();
    80001e4e:	ef1ff0ef          	jal	ra,80001d3e <sched>

  // Tidy up.
  p->chan = 0;
    80001e52:	0204b023          	sd	zero,32(s1)

  // Reacquire original lock.
  release(&p->lock);
    80001e56:	8526                	mv	a0,s1
    80001e58:	ddbfe0ef          	jal	ra,80000c32 <release>
  acquire(lk);
    80001e5c:	854a                	mv	a0,s2
    80001e5e:	d3dfe0ef          	jal	ra,80000b9a <acquire>
}
    80001e62:	70a2                	ld	ra,40(sp)
    80001e64:	7402                	ld	s0,32(sp)
    80001e66:	64e2                	ld	s1,24(sp)
    80001e68:	6942                	ld	s2,16(sp)
    80001e6a:	69a2                	ld	s3,8(sp)
    80001e6c:	6145                	addi	sp,sp,48
    80001e6e:	8082                	ret

0000000080001e70 <wakeup>:

// Wake up all processes sleeping on chan.
// Must be called without any p->lock.
void
wakeup(void *chan)
{
    80001e70:	7139                	addi	sp,sp,-64
    80001e72:	fc06                	sd	ra,56(sp)
    80001e74:	f822                	sd	s0,48(sp)
    80001e76:	f426                	sd	s1,40(sp)
    80001e78:	f04a                	sd	s2,32(sp)
    80001e7a:	ec4e                	sd	s3,24(sp)
    80001e7c:	e852                	sd	s4,16(sp)
    80001e7e:	e456                	sd	s5,8(sp)
    80001e80:	0080                	addi	s0,sp,64
    80001e82:	8a2a                	mv	s4,a0
  struct proc *p;

  for(p = proc; p < &proc[NPROC]; p++) {
    80001e84:	0000e497          	auipc	s1,0xe
    80001e88:	3cc48493          	addi	s1,s1,972 # 80010250 <proc>
    if(p != myproc()){
      acquire(&p->lock);
      if(p->state == SLEEPING && p->chan == chan) {
    80001e8c:	4989                	li	s3,2
        p->state = RUNNABLE;
    80001e8e:	4a8d                	li	s5,3
  for(p = proc; p < &proc[NPROC]; p++) {
    80001e90:	0002b917          	auipc	s2,0x2b
    80001e94:	dc090913          	addi	s2,s2,-576 # 8002cc50 <tickslock>
    80001e98:	a801                	j	80001ea8 <wakeup+0x38>
      }
      release(&p->lock);
    80001e9a:	8526                	mv	a0,s1
    80001e9c:	d97fe0ef          	jal	ra,80000c32 <release>
  for(p = proc; p < &proc[NPROC]; p++) {
    80001ea0:	72848493          	addi	s1,s1,1832
    80001ea4:	03248263          	beq	s1,s2,80001ec8 <wakeup+0x58>
    if(p != myproc()){
    80001ea8:	9b1ff0ef          	jal	ra,80001858 <myproc>
    80001eac:	fea48ae3          	beq	s1,a0,80001ea0 <wakeup+0x30>
      acquire(&p->lock);
    80001eb0:	8526                	mv	a0,s1
    80001eb2:	ce9fe0ef          	jal	ra,80000b9a <acquire>
      if(p->state == SLEEPING && p->chan == chan) {
    80001eb6:	4c9c                	lw	a5,24(s1)
    80001eb8:	ff3791e3          	bne	a5,s3,80001e9a <wakeup+0x2a>
    80001ebc:	709c                	ld	a5,32(s1)
    80001ebe:	fd479ee3          	bne	a5,s4,80001e9a <wakeup+0x2a>
        p->state = RUNNABLE;
    80001ec2:	0154ac23          	sw	s5,24(s1)
    80001ec6:	bfd1                	j	80001e9a <wakeup+0x2a>
    }
  }
}
    80001ec8:	70e2                	ld	ra,56(sp)
    80001eca:	7442                	ld	s0,48(sp)
    80001ecc:	74a2                	ld	s1,40(sp)
    80001ece:	7902                	ld	s2,32(sp)
    80001ed0:	69e2                	ld	s3,24(sp)
    80001ed2:	6a42                	ld	s4,16(sp)
    80001ed4:	6aa2                	ld	s5,8(sp)
    80001ed6:	6121                	addi	sp,sp,64
    80001ed8:	8082                	ret

0000000080001eda <reparent>:
{
    80001eda:	7179                	addi	sp,sp,-48
    80001edc:	f406                	sd	ra,40(sp)
    80001ede:	f022                	sd	s0,32(sp)
    80001ee0:	ec26                	sd	s1,24(sp)
    80001ee2:	e84a                	sd	s2,16(sp)
    80001ee4:	e44e                	sd	s3,8(sp)
    80001ee6:	e052                	sd	s4,0(sp)
    80001ee8:	1800                	addi	s0,sp,48
    80001eea:	892a                	mv	s2,a0
  for(pp = proc; pp < &proc[NPROC]; pp++){
    80001eec:	0000e497          	auipc	s1,0xe
    80001ef0:	36448493          	addi	s1,s1,868 # 80010250 <proc>
      pp->parent = initproc;
    80001ef4:	00006a17          	auipc	s4,0x6
    80001ef8:	df4a0a13          	addi	s4,s4,-524 # 80007ce8 <initproc>
  for(pp = proc; pp < &proc[NPROC]; pp++){
    80001efc:	0002b997          	auipc	s3,0x2b
    80001f00:	d5498993          	addi	s3,s3,-684 # 8002cc50 <tickslock>
    80001f04:	a029                	j	80001f0e <reparent+0x34>
    80001f06:	72848493          	addi	s1,s1,1832
    80001f0a:	01348b63          	beq	s1,s3,80001f20 <reparent+0x46>
    if(pp->parent == p){
    80001f0e:	7c9c                	ld	a5,56(s1)
    80001f10:	ff279be3          	bne	a5,s2,80001f06 <reparent+0x2c>
      pp->parent = initproc;
    80001f14:	000a3503          	ld	a0,0(s4)
    80001f18:	fc88                	sd	a0,56(s1)
      wakeup(initproc);
    80001f1a:	f57ff0ef          	jal	ra,80001e70 <wakeup>
    80001f1e:	b7e5                	j	80001f06 <reparent+0x2c>
}
    80001f20:	70a2                	ld	ra,40(sp)
    80001f22:	7402                	ld	s0,32(sp)
    80001f24:	64e2                	ld	s1,24(sp)
    80001f26:	6942                	ld	s2,16(sp)
    80001f28:	69a2                	ld	s3,8(sp)
    80001f2a:	6a02                	ld	s4,0(sp)
    80001f2c:	6145                	addi	sp,sp,48
    80001f2e:	8082                	ret

0000000080001f30 <exit>:
{
    80001f30:	7179                	addi	sp,sp,-48
    80001f32:	f406                	sd	ra,40(sp)
    80001f34:	f022                	sd	s0,32(sp)
    80001f36:	ec26                	sd	s1,24(sp)
    80001f38:	e84a                	sd	s2,16(sp)
    80001f3a:	e44e                	sd	s3,8(sp)
    80001f3c:	e052                	sd	s4,0(sp)
    80001f3e:	1800                	addi	s0,sp,48
    80001f40:	8a2a                	mv	s4,a0
  struct proc *p = myproc();
    80001f42:	917ff0ef          	jal	ra,80001858 <myproc>
    80001f46:	89aa                	mv	s3,a0
  if(p == initproc)
    80001f48:	00006797          	auipc	a5,0x6
    80001f4c:	da07b783          	ld	a5,-608(a5) # 80007ce8 <initproc>
    80001f50:	0d050493          	addi	s1,a0,208
    80001f54:	71050913          	addi	s2,a0,1808
    80001f58:	00a79f63          	bne	a5,a0,80001f76 <exit+0x46>
    panic("init exiting");
    80001f5c:	00005517          	auipc	a0,0x5
    80001f60:	35450513          	addi	a0,a0,852 # 800072b0 <digits+0x278>
    80001f64:	ff2fe0ef          	jal	ra,80000756 <panic>
      fileclose(f);
    80001f68:	6d7010ef          	jal	ra,80003e3e <fileclose>
      p->ofile[fd] = 0;
    80001f6c:	0004b023          	sd	zero,0(s1)
  for(int fd = 0; fd < NOFILE; fd++){
    80001f70:	04a1                	addi	s1,s1,8
    80001f72:	01248563          	beq	s1,s2,80001f7c <exit+0x4c>
    if(p->ofile[fd]){
    80001f76:	6088                	ld	a0,0(s1)
    80001f78:	f965                	bnez	a0,80001f68 <exit+0x38>
    80001f7a:	bfdd                	j	80001f70 <exit+0x40>
  begin_op();
    80001f7c:	221010ef          	jal	ra,8000399c <begin_op>
  iput(p->cwd);
    80001f80:	7109b503          	ld	a0,1808(s3)
    80001f84:	30c010ef          	jal	ra,80003290 <iput>
  end_op();
    80001f88:	285010ef          	jal	ra,80003a0c <end_op>
  p->cwd = 0;
    80001f8c:	7009b823          	sd	zero,1808(s3)
  acquire(&wait_lock);
    80001f90:	0000e497          	auipc	s1,0xe
    80001f94:	ea848493          	addi	s1,s1,-344 # 8000fe38 <wait_lock>
    80001f98:	8526                	mv	a0,s1
    80001f9a:	c01fe0ef          	jal	ra,80000b9a <acquire>
  reparent(p);
    80001f9e:	854e                	mv	a0,s3
    80001fa0:	f3bff0ef          	jal	ra,80001eda <reparent>
  wakeup(p->parent);
    80001fa4:	0389b503          	ld	a0,56(s3)
    80001fa8:	ec9ff0ef          	jal	ra,80001e70 <wakeup>
  acquire(&p->lock);
    80001fac:	854e                	mv	a0,s3
    80001fae:	bedfe0ef          	jal	ra,80000b9a <acquire>
  p->xstate = status;
    80001fb2:	0349a623          	sw	s4,44(s3)
  p->state = ZOMBIE;
    80001fb6:	4795                	li	a5,5
    80001fb8:	00f9ac23          	sw	a5,24(s3)
  release(&wait_lock);
    80001fbc:	8526                	mv	a0,s1
    80001fbe:	c75fe0ef          	jal	ra,80000c32 <release>
  sched();
    80001fc2:	d7dff0ef          	jal	ra,80001d3e <sched>
  panic("zombie exit");
    80001fc6:	00005517          	auipc	a0,0x5
    80001fca:	2fa50513          	addi	a0,a0,762 # 800072c0 <digits+0x288>
    80001fce:	f88fe0ef          	jal	ra,80000756 <panic>

0000000080001fd2 <kill>:
// Kill the process with the given pid.
// The victim won't exit until it tries to return
// to user space (see usertrap() in trap.c).
int
kill(int pid)
{
    80001fd2:	7179                	addi	sp,sp,-48
    80001fd4:	f406                	sd	ra,40(sp)
    80001fd6:	f022                	sd	s0,32(sp)
    80001fd8:	ec26                	sd	s1,24(sp)
    80001fda:	e84a                	sd	s2,16(sp)
    80001fdc:	e44e                	sd	s3,8(sp)
    80001fde:	1800                	addi	s0,sp,48
    80001fe0:	892a                	mv	s2,a0
  struct proc *p;

  for(p = proc; p < &proc[NPROC]; p++){
    80001fe2:	0000e497          	auipc	s1,0xe
    80001fe6:	26e48493          	addi	s1,s1,622 # 80010250 <proc>
    80001fea:	0002b997          	auipc	s3,0x2b
    80001fee:	c6698993          	addi	s3,s3,-922 # 8002cc50 <tickslock>
    acquire(&p->lock);
    80001ff2:	8526                	mv	a0,s1
    80001ff4:	ba7fe0ef          	jal	ra,80000b9a <acquire>
    if(p->pid == pid){
    80001ff8:	589c                	lw	a5,48(s1)
    80001ffa:	01278b63          	beq	a5,s2,80002010 <kill+0x3e>
        p->state = RUNNABLE;
      }
      release(&p->lock);
      return 0;
    }
    release(&p->lock);
    80001ffe:	8526                	mv	a0,s1
    80002000:	c33fe0ef          	jal	ra,80000c32 <release>
  for(p = proc; p < &proc[NPROC]; p++){
    80002004:	72848493          	addi	s1,s1,1832
    80002008:	ff3495e3          	bne	s1,s3,80001ff2 <kill+0x20>
  }
  return -1;
    8000200c:	557d                	li	a0,-1
    8000200e:	a819                	j	80002024 <kill+0x52>
      p->killed = 1;
    80002010:	4785                	li	a5,1
    80002012:	d49c                	sw	a5,40(s1)
      if(p->state == SLEEPING){
    80002014:	4c98                	lw	a4,24(s1)
    80002016:	4789                	li	a5,2
    80002018:	00f70d63          	beq	a4,a5,80002032 <kill+0x60>
      release(&p->lock);
    8000201c:	8526                	mv	a0,s1
    8000201e:	c15fe0ef          	jal	ra,80000c32 <release>
      return 0;
    80002022:	4501                	li	a0,0
}
    80002024:	70a2                	ld	ra,40(sp)
    80002026:	7402                	ld	s0,32(sp)
    80002028:	64e2                	ld	s1,24(sp)
    8000202a:	6942                	ld	s2,16(sp)
    8000202c:	69a2                	ld	s3,8(sp)
    8000202e:	6145                	addi	sp,sp,48
    80002030:	8082                	ret
        p->state = RUNNABLE;
    80002032:	478d                	li	a5,3
    80002034:	cc9c                	sw	a5,24(s1)
    80002036:	b7dd                	j	8000201c <kill+0x4a>

0000000080002038 <setkilled>:

void
setkilled(struct proc *p)
{
    80002038:	1101                	addi	sp,sp,-32
    8000203a:	ec06                	sd	ra,24(sp)
    8000203c:	e822                	sd	s0,16(sp)
    8000203e:	e426                	sd	s1,8(sp)
    80002040:	1000                	addi	s0,sp,32
    80002042:	84aa                	mv	s1,a0
  acquire(&p->lock);
    80002044:	b57fe0ef          	jal	ra,80000b9a <acquire>
  p->killed = 1;
    80002048:	4785                	li	a5,1
    8000204a:	d49c                	sw	a5,40(s1)
  release(&p->lock);
    8000204c:	8526                	mv	a0,s1
    8000204e:	be5fe0ef          	jal	ra,80000c32 <release>
}
    80002052:	60e2                	ld	ra,24(sp)
    80002054:	6442                	ld	s0,16(sp)
    80002056:	64a2                	ld	s1,8(sp)
    80002058:	6105                	addi	sp,sp,32
    8000205a:	8082                	ret

000000008000205c <killed>:

int
killed(struct proc *p)
{
    8000205c:	1101                	addi	sp,sp,-32
    8000205e:	ec06                	sd	ra,24(sp)
    80002060:	e822                	sd	s0,16(sp)
    80002062:	e426                	sd	s1,8(sp)
    80002064:	e04a                	sd	s2,0(sp)
    80002066:	1000                	addi	s0,sp,32
    80002068:	84aa                	mv	s1,a0
  int k;
  
  acquire(&p->lock);
    8000206a:	b31fe0ef          	jal	ra,80000b9a <acquire>
  k = p->killed;
    8000206e:	0284a903          	lw	s2,40(s1)
  release(&p->lock);
    80002072:	8526                	mv	a0,s1
    80002074:	bbffe0ef          	jal	ra,80000c32 <release>
  return k;
}
    80002078:	854a                	mv	a0,s2
    8000207a:	60e2                	ld	ra,24(sp)
    8000207c:	6442                	ld	s0,16(sp)
    8000207e:	64a2                	ld	s1,8(sp)
    80002080:	6902                	ld	s2,0(sp)
    80002082:	6105                	addi	sp,sp,32
    80002084:	8082                	ret

0000000080002086 <wait>:
{
    80002086:	715d                	addi	sp,sp,-80
    80002088:	e486                	sd	ra,72(sp)
    8000208a:	e0a2                	sd	s0,64(sp)
    8000208c:	fc26                	sd	s1,56(sp)
    8000208e:	f84a                	sd	s2,48(sp)
    80002090:	f44e                	sd	s3,40(sp)
    80002092:	f052                	sd	s4,32(sp)
    80002094:	ec56                	sd	s5,24(sp)
    80002096:	e85a                	sd	s6,16(sp)
    80002098:	e45e                	sd	s7,8(sp)
    8000209a:	e062                	sd	s8,0(sp)
    8000209c:	0880                	addi	s0,sp,80
    8000209e:	8b2a                	mv	s6,a0
  struct proc *p = myproc();
    800020a0:	fb8ff0ef          	jal	ra,80001858 <myproc>
    800020a4:	892a                	mv	s2,a0
  acquire(&wait_lock);
    800020a6:	0000e517          	auipc	a0,0xe
    800020aa:	d9250513          	addi	a0,a0,-622 # 8000fe38 <wait_lock>
    800020ae:	aedfe0ef          	jal	ra,80000b9a <acquire>
    havekids = 0;
    800020b2:	4b81                	li	s7,0
        if(pp->state == ZOMBIE){
    800020b4:	4a15                	li	s4,5
        havekids = 1;
    800020b6:	4a85                	li	s5,1
    for(pp = proc; pp < &proc[NPROC]; pp++){
    800020b8:	0002b997          	auipc	s3,0x2b
    800020bc:	b9898993          	addi	s3,s3,-1128 # 8002cc50 <tickslock>
    sleep(p, &wait_lock);  //DOC: wait-sleep
    800020c0:	0000ec17          	auipc	s8,0xe
    800020c4:	d78c0c13          	addi	s8,s8,-648 # 8000fe38 <wait_lock>
    havekids = 0;
    800020c8:	875e                	mv	a4,s7
    for(pp = proc; pp < &proc[NPROC]; pp++){
    800020ca:	0000e497          	auipc	s1,0xe
    800020ce:	18648493          	addi	s1,s1,390 # 80010250 <proc>
    800020d2:	a899                	j	80002128 <wait+0xa2>
          pid = pp->pid;
    800020d4:	0304a983          	lw	s3,48(s1)
          if(addr != 0 && copyout(p->pagetable, addr, (char *)&pp->xstate,
    800020d8:	000b0c63          	beqz	s6,800020f0 <wait+0x6a>
    800020dc:	4691                	li	a3,4
    800020de:	02c48613          	addi	a2,s1,44
    800020e2:	85da                	mv	a1,s6
    800020e4:	05093503          	ld	a0,80(s2)
    800020e8:	c24ff0ef          	jal	ra,8000150c <copyout>
    800020ec:	00054f63          	bltz	a0,8000210a <wait+0x84>
          freeproc(pp);
    800020f0:	8526                	mv	a0,s1
    800020f2:	8d9ff0ef          	jal	ra,800019ca <freeproc>
          release(&pp->lock);
    800020f6:	8526                	mv	a0,s1
    800020f8:	b3bfe0ef          	jal	ra,80000c32 <release>
          release(&wait_lock);
    800020fc:	0000e517          	auipc	a0,0xe
    80002100:	d3c50513          	addi	a0,a0,-708 # 8000fe38 <wait_lock>
    80002104:	b2ffe0ef          	jal	ra,80000c32 <release>
          return pid;
    80002108:	a891                	j	8000215c <wait+0xd6>
            release(&pp->lock);
    8000210a:	8526                	mv	a0,s1
    8000210c:	b27fe0ef          	jal	ra,80000c32 <release>
            release(&wait_lock);
    80002110:	0000e517          	auipc	a0,0xe
    80002114:	d2850513          	addi	a0,a0,-728 # 8000fe38 <wait_lock>
    80002118:	b1bfe0ef          	jal	ra,80000c32 <release>
            return -1;
    8000211c:	59fd                	li	s3,-1
    8000211e:	a83d                	j	8000215c <wait+0xd6>
    for(pp = proc; pp < &proc[NPROC]; pp++){
    80002120:	72848493          	addi	s1,s1,1832
    80002124:	03348063          	beq	s1,s3,80002144 <wait+0xbe>
      if(pp->parent == p){
    80002128:	7c9c                	ld	a5,56(s1)
    8000212a:	ff279be3          	bne	a5,s2,80002120 <wait+0x9a>
        acquire(&pp->lock);
    8000212e:	8526                	mv	a0,s1
    80002130:	a6bfe0ef          	jal	ra,80000b9a <acquire>
        if(pp->state == ZOMBIE){
    80002134:	4c9c                	lw	a5,24(s1)
    80002136:	f9478fe3          	beq	a5,s4,800020d4 <wait+0x4e>
        release(&pp->lock);
    8000213a:	8526                	mv	a0,s1
    8000213c:	af7fe0ef          	jal	ra,80000c32 <release>
        havekids = 1;
    80002140:	8756                	mv	a4,s5
    80002142:	bff9                	j	80002120 <wait+0x9a>
    if(!havekids || killed(p)){
    80002144:	c709                	beqz	a4,8000214e <wait+0xc8>
    80002146:	854a                	mv	a0,s2
    80002148:	f15ff0ef          	jal	ra,8000205c <killed>
    8000214c:	c50d                	beqz	a0,80002176 <wait+0xf0>
      release(&wait_lock);
    8000214e:	0000e517          	auipc	a0,0xe
    80002152:	cea50513          	addi	a0,a0,-790 # 8000fe38 <wait_lock>
    80002156:	addfe0ef          	jal	ra,80000c32 <release>
      return -1;
    8000215a:	59fd                	li	s3,-1
}
    8000215c:	854e                	mv	a0,s3
    8000215e:	60a6                	ld	ra,72(sp)
    80002160:	6406                	ld	s0,64(sp)
    80002162:	74e2                	ld	s1,56(sp)
    80002164:	7942                	ld	s2,48(sp)
    80002166:	79a2                	ld	s3,40(sp)
    80002168:	7a02                	ld	s4,32(sp)
    8000216a:	6ae2                	ld	s5,24(sp)
    8000216c:	6b42                	ld	s6,16(sp)
    8000216e:	6ba2                	ld	s7,8(sp)
    80002170:	6c02                	ld	s8,0(sp)
    80002172:	6161                	addi	sp,sp,80
    80002174:	8082                	ret
    sleep(p, &wait_lock);  //DOC: wait-sleep
    80002176:	85e2                	mv	a1,s8
    80002178:	854a                	mv	a0,s2
    8000217a:	cabff0ef          	jal	ra,80001e24 <sleep>
    havekids = 0;
    8000217e:	b7a9                	j	800020c8 <wait+0x42>

0000000080002180 <either_copyout>:
// Copy to either a user address, or kernel address,
// depending on usr_dst.
// Returns 0 on success, -1 on error.
int
either_copyout(int user_dst, uint64 dst, void *src, uint64 len)
{
    80002180:	7179                	addi	sp,sp,-48
    80002182:	f406                	sd	ra,40(sp)
    80002184:	f022                	sd	s0,32(sp)
    80002186:	ec26                	sd	s1,24(sp)
    80002188:	e84a                	sd	s2,16(sp)
    8000218a:	e44e                	sd	s3,8(sp)
    8000218c:	e052                	sd	s4,0(sp)
    8000218e:	1800                	addi	s0,sp,48
    80002190:	84aa                	mv	s1,a0
    80002192:	892e                	mv	s2,a1
    80002194:	89b2                	mv	s3,a2
    80002196:	8a36                	mv	s4,a3
  struct proc *p = myproc();
    80002198:	ec0ff0ef          	jal	ra,80001858 <myproc>
  if(user_dst){
    8000219c:	cc99                	beqz	s1,800021ba <either_copyout+0x3a>
    return copyout(p->pagetable, dst, src, len);
    8000219e:	86d2                	mv	a3,s4
    800021a0:	864e                	mv	a2,s3
    800021a2:	85ca                	mv	a1,s2
    800021a4:	6928                	ld	a0,80(a0)
    800021a6:	b66ff0ef          	jal	ra,8000150c <copyout>
  } else {
    memmove((char *)dst, src, len);
    return 0;
  }
}
    800021aa:	70a2                	ld	ra,40(sp)
    800021ac:	7402                	ld	s0,32(sp)
    800021ae:	64e2                	ld	s1,24(sp)
    800021b0:	6942                	ld	s2,16(sp)
    800021b2:	69a2                	ld	s3,8(sp)
    800021b4:	6a02                	ld	s4,0(sp)
    800021b6:	6145                	addi	sp,sp,48
    800021b8:	8082                	ret
    memmove((char *)dst, src, len);
    800021ba:	000a061b          	sext.w	a2,s4
    800021be:	85ce                	mv	a1,s3
    800021c0:	854a                	mv	a0,s2
    800021c2:	b09fe0ef          	jal	ra,80000cca <memmove>
    return 0;
    800021c6:	8526                	mv	a0,s1
    800021c8:	b7cd                	j	800021aa <either_copyout+0x2a>

00000000800021ca <either_copyin>:
// Copy from either a user address, or kernel address,
// depending on usr_src.
// Returns 0 on success, -1 on error.
int
either_copyin(void *dst, int user_src, uint64 src, uint64 len)
{
    800021ca:	7179                	addi	sp,sp,-48
    800021cc:	f406                	sd	ra,40(sp)
    800021ce:	f022                	sd	s0,32(sp)
    800021d0:	ec26                	sd	s1,24(sp)
    800021d2:	e84a                	sd	s2,16(sp)
    800021d4:	e44e                	sd	s3,8(sp)
    800021d6:	e052                	sd	s4,0(sp)
    800021d8:	1800                	addi	s0,sp,48
    800021da:	892a                	mv	s2,a0
    800021dc:	84ae                	mv	s1,a1
    800021de:	89b2                	mv	s3,a2
    800021e0:	8a36                	mv	s4,a3
  struct proc *p = myproc();
    800021e2:	e76ff0ef          	jal	ra,80001858 <myproc>
  if(user_src){
    800021e6:	cc99                	beqz	s1,80002204 <either_copyin+0x3a>
    return copyin(p->pagetable, dst, src, len);
    800021e8:	86d2                	mv	a3,s4
    800021ea:	864e                	mv	a2,s3
    800021ec:	85ca                	mv	a1,s2
    800021ee:	6928                	ld	a0,80(a0)
    800021f0:	bd4ff0ef          	jal	ra,800015c4 <copyin>
  } else {
    memmove(dst, (char*)src, len);
    return 0;
  }
}
    800021f4:	70a2                	ld	ra,40(sp)
    800021f6:	7402                	ld	s0,32(sp)
    800021f8:	64e2                	ld	s1,24(sp)
    800021fa:	6942                	ld	s2,16(sp)
    800021fc:	69a2                	ld	s3,8(sp)
    800021fe:	6a02                	ld	s4,0(sp)
    80002200:	6145                	addi	sp,sp,48
    80002202:	8082                	ret
    memmove(dst, (char*)src, len);
    80002204:	000a061b          	sext.w	a2,s4
    80002208:	85ce                	mv	a1,s3
    8000220a:	854a                	mv	a0,s2
    8000220c:	abffe0ef          	jal	ra,80000cca <memmove>
    return 0;
    80002210:	8526                	mv	a0,s1
    80002212:	b7cd                	j	800021f4 <either_copyin+0x2a>

0000000080002214 <procdump>:
// Print a process listing to console.  For debugging.
// Runs when user types ^P on console.
// No lock to avoid wedging a stuck machine further.
void
procdump(void)
{
    80002214:	715d                	addi	sp,sp,-80
    80002216:	e486                	sd	ra,72(sp)
    80002218:	e0a2                	sd	s0,64(sp)
    8000221a:	fc26                	sd	s1,56(sp)
    8000221c:	f84a                	sd	s2,48(sp)
    8000221e:	f44e                	sd	s3,40(sp)
    80002220:	f052                	sd	s4,32(sp)
    80002222:	ec56                	sd	s5,24(sp)
    80002224:	e85a                	sd	s6,16(sp)
    80002226:	e45e                	sd	s7,8(sp)
    80002228:	0880                	addi	s0,sp,80
  [ZOMBIE]    "zombie"
  };
  struct proc *p;
  char *state;

  printf("\n");
    8000222a:	00005517          	auipc	a0,0x5
    8000222e:	56650513          	addi	a0,a0,1382 # 80007790 <syscalls+0x2e8>
    80002232:	a70fe0ef          	jal	ra,800004a2 <printf>
  for(p = proc; p < &proc[NPROC]; p++){
    80002236:	0000e497          	auipc	s1,0xe
    8000223a:	73248493          	addi	s1,s1,1842 # 80010968 <proc+0x718>
    8000223e:	0002b917          	auipc	s2,0x2b
    80002242:	12a90913          	addi	s2,s2,298 # 8002d368 <bcache+0x700>
    if(p->state == UNUSED)
      continue;
    if(p->state >= 0 && p->state < NELEM(states) && states[p->state])
    80002246:	4b15                	li	s6,5
      state = states[p->state];
    else
      state = "???";
    80002248:	00005997          	auipc	s3,0x5
    8000224c:	08898993          	addi	s3,s3,136 # 800072d0 <digits+0x298>
    printf("%d %s %s", p->pid, state, p->name);
    80002250:	00005a97          	auipc	s5,0x5
    80002254:	088a8a93          	addi	s5,s5,136 # 800072d8 <digits+0x2a0>
    printf("\n");
    80002258:	00005a17          	auipc	s4,0x5
    8000225c:	538a0a13          	addi	s4,s4,1336 # 80007790 <syscalls+0x2e8>
    if(p->state >= 0 && p->state < NELEM(states) && states[p->state])
    80002260:	00005b97          	auipc	s7,0x5
    80002264:	0b8b8b93          	addi	s7,s7,184 # 80007318 <states.0>
    80002268:	a829                	j	80002282 <procdump+0x6e>
    printf("%d %s %s", p->pid, state, p->name);
    8000226a:	9186a583          	lw	a1,-1768(a3)
    8000226e:	8556                	mv	a0,s5
    80002270:	a32fe0ef          	jal	ra,800004a2 <printf>
    printf("\n");
    80002274:	8552                	mv	a0,s4
    80002276:	a2cfe0ef          	jal	ra,800004a2 <printf>
  for(p = proc; p < &proc[NPROC]; p++){
    8000227a:	72848493          	addi	s1,s1,1832
    8000227e:	03248163          	beq	s1,s2,800022a0 <procdump+0x8c>
    if(p->state == UNUSED)
    80002282:	86a6                	mv	a3,s1
    80002284:	9004a783          	lw	a5,-1792(s1)
    80002288:	dbed                	beqz	a5,8000227a <procdump+0x66>
      state = "???";
    8000228a:	864e                	mv	a2,s3
    if(p->state >= 0 && p->state < NELEM(states) && states[p->state])
    8000228c:	fcfb6fe3          	bltu	s6,a5,8000226a <procdump+0x56>
    80002290:	1782                	slli	a5,a5,0x20
    80002292:	9381                	srli	a5,a5,0x20
    80002294:	078e                	slli	a5,a5,0x3
    80002296:	97de                	add	a5,a5,s7
    80002298:	6390                	ld	a2,0(a5)
    8000229a:	fa61                	bnez	a2,8000226a <procdump+0x56>
      state = "???";
    8000229c:	864e                	mv	a2,s3
    8000229e:	b7f1                	j	8000226a <procdump+0x56>
  }
}
    800022a0:	60a6                	ld	ra,72(sp)
    800022a2:	6406                	ld	s0,64(sp)
    800022a4:	74e2                	ld	s1,56(sp)
    800022a6:	7942                	ld	s2,48(sp)
    800022a8:	79a2                	ld	s3,40(sp)
    800022aa:	7a02                	ld	s4,32(sp)
    800022ac:	6ae2                	ld	s5,24(sp)
    800022ae:	6b42                	ld	s6,16(sp)
    800022b0:	6ba2                	ld	s7,8(sp)
    800022b2:	6161                	addi	sp,sp,80
    800022b4:	8082                	ret

00000000800022b6 <swtch>:
    800022b6:	00153023          	sd	ra,0(a0)
    800022ba:	00253423          	sd	sp,8(a0)
    800022be:	e900                	sd	s0,16(a0)
    800022c0:	ed04                	sd	s1,24(a0)
    800022c2:	03253023          	sd	s2,32(a0)
    800022c6:	03353423          	sd	s3,40(a0)
    800022ca:	03453823          	sd	s4,48(a0)
    800022ce:	03553c23          	sd	s5,56(a0)
    800022d2:	05653023          	sd	s6,64(a0)
    800022d6:	05753423          	sd	s7,72(a0)
    800022da:	05853823          	sd	s8,80(a0)
    800022de:	05953c23          	sd	s9,88(a0)
    800022e2:	07a53023          	sd	s10,96(a0)
    800022e6:	07b53423          	sd	s11,104(a0)
    800022ea:	0005b083          	ld	ra,0(a1)
    800022ee:	0085b103          	ld	sp,8(a1)
    800022f2:	6980                	ld	s0,16(a1)
    800022f4:	6d84                	ld	s1,24(a1)
    800022f6:	0205b903          	ld	s2,32(a1)
    800022fa:	0285b983          	ld	s3,40(a1)
    800022fe:	0305ba03          	ld	s4,48(a1)
    80002302:	0385ba83          	ld	s5,56(a1)
    80002306:	0405bb03          	ld	s6,64(a1)
    8000230a:	0485bb83          	ld	s7,72(a1)
    8000230e:	0505bc03          	ld	s8,80(a1)
    80002312:	0585bc83          	ld	s9,88(a1)
    80002316:	0605bd03          	ld	s10,96(a1)
    8000231a:	0685bd83          	ld	s11,104(a1)
    8000231e:	8082                	ret

0000000080002320 <trapinit>:

extern int devintr();

void
trapinit(void)
{
    80002320:	1141                	addi	sp,sp,-16
    80002322:	e406                	sd	ra,8(sp)
    80002324:	e022                	sd	s0,0(sp)
    80002326:	0800                	addi	s0,sp,16
  initlock(&tickslock, "time");
    80002328:	00005597          	auipc	a1,0x5
    8000232c:	02058593          	addi	a1,a1,32 # 80007348 <states.0+0x30>
    80002330:	0002b517          	auipc	a0,0x2b
    80002334:	92050513          	addi	a0,a0,-1760 # 8002cc50 <tickslock>
    80002338:	fe2fe0ef          	jal	ra,80000b1a <initlock>
}
    8000233c:	60a2                	ld	ra,8(sp)
    8000233e:	6402                	ld	s0,0(sp)
    80002340:	0141                	addi	sp,sp,16
    80002342:	8082                	ret

0000000080002344 <trapinithart>:

// set up to take exceptions and traps while in the kernel.
void
trapinithart(void)
{
    80002344:	1141                	addi	sp,sp,-16
    80002346:	e422                	sd	s0,8(sp)
    80002348:	0800                	addi	s0,sp,16
  asm volatile("csrw stvec, %0" : : "r" (x));
    8000234a:	00003797          	auipc	a5,0x3
    8000234e:	e2678793          	addi	a5,a5,-474 # 80005170 <kernelvec>
    80002352:	10579073          	csrw	stvec,a5
  w_stvec((uint64)kernelvec);
}
    80002356:	6422                	ld	s0,8(sp)
    80002358:	0141                	addi	sp,sp,16
    8000235a:	8082                	ret

000000008000235c <usertrapret>:
//
// return to user space
//
void
usertrapret(void)
{
    8000235c:	1141                	addi	sp,sp,-16
    8000235e:	e406                	sd	ra,8(sp)
    80002360:	e022                	sd	s0,0(sp)
    80002362:	0800                	addi	s0,sp,16
  struct proc *p = myproc();
    80002364:	cf4ff0ef          	jal	ra,80001858 <myproc>
  asm volatile("csrr %0, sstatus" : "=r" (x) );
    80002368:	100027f3          	csrr	a5,sstatus
  w_sstatus(r_sstatus() & ~SSTATUS_SIE);
    8000236c:	9bf5                	andi	a5,a5,-3
  asm volatile("csrw sstatus, %0" : : "r" (x));
    8000236e:	10079073          	csrw	sstatus,a5
  // kerneltrap() to usertrap(), so turn off interrupts until
  // we're back in user space, where usertrap() is correct.
  intr_off();

  // send syscalls, interrupts, and exceptions to uservec in trampoline.S
  uint64 trampoline_uservec = TRAMPOLINE + (uservec - trampoline);
    80002372:	00004617          	auipc	a2,0x4
    80002376:	c8e60613          	addi	a2,a2,-882 # 80006000 <_trampoline>
    8000237a:	00004697          	auipc	a3,0x4
    8000237e:	c8668693          	addi	a3,a3,-890 # 80006000 <_trampoline>
    80002382:	8e91                	sub	a3,a3,a2
    80002384:	040007b7          	lui	a5,0x4000
    80002388:	17fd                	addi	a5,a5,-1
    8000238a:	07b2                	slli	a5,a5,0xc
    8000238c:	96be                	add	a3,a3,a5
  asm volatile("csrw stvec, %0" : : "r" (x));
    8000238e:	10569073          	csrw	stvec,a3
  w_stvec(trampoline_uservec);

  // set up trapframe values that uservec will need when
  // the process next traps into the kernel.
  p->trapframe->kernel_satp = r_satp();         // kernel page table
    80002392:	6d38                	ld	a4,88(a0)
  asm volatile("csrr %0, satp" : "=r" (x) );
    80002394:	180026f3          	csrr	a3,satp
    80002398:	e314                	sd	a3,0(a4)
  p->trapframe->kernel_sp = p->kstack + PGSIZE; // process's kernel stack
    8000239a:	6d38                	ld	a4,88(a0)
    8000239c:	6134                	ld	a3,64(a0)
    8000239e:	6585                	lui	a1,0x1
    800023a0:	96ae                	add	a3,a3,a1
    800023a2:	e714                	sd	a3,8(a4)
  p->trapframe->kernel_trap = (uint64)usertrap;
    800023a4:	6d38                	ld	a4,88(a0)
    800023a6:	00000697          	auipc	a3,0x0
    800023aa:	10c68693          	addi	a3,a3,268 # 800024b2 <usertrap>
    800023ae:	eb14                	sd	a3,16(a4)
  p->trapframe->kernel_hartid = r_tp();         // hartid for cpuid()
    800023b0:	6d38                	ld	a4,88(a0)
  asm volatile("mv %0, tp" : "=r" (x) );
    800023b2:	8692                	mv	a3,tp
    800023b4:	f314                	sd	a3,32(a4)
  asm volatile("csrr %0, sstatus" : "=r" (x) );
    800023b6:	100026f3          	csrr	a3,sstatus
  // set up the registers that trampoline.S's sret will use
  // to get to user space.
  
  // set S Previous Privilege mode to User.
  unsigned long x = r_sstatus();
  x &= ~SSTATUS_SPP; // clear SPP to 0 for user mode
    800023ba:	eff6f693          	andi	a3,a3,-257
  x |= SSTATUS_SPIE; // enable interrupts in user mode
    800023be:	0206e693          	ori	a3,a3,32
  asm volatile("csrw sstatus, %0" : : "r" (x));
    800023c2:	10069073          	csrw	sstatus,a3
  w_sstatus(x);

  // set S Exception Program Counter to the saved user pc.
  w_sepc(p->trapframe->epc);
    800023c6:	6d38                	ld	a4,88(a0)
  asm volatile("csrw sepc, %0" : : "r" (x));
    800023c8:	6f18                	ld	a4,24(a4)
    800023ca:	14171073          	csrw	sepc,a4

  // tell trampoline.S the user page table to switch to.
  uint64 satp = MAKE_SATP(p->pagetable);
    800023ce:	6928                	ld	a0,80(a0)
    800023d0:	8131                	srli	a0,a0,0xc

  // jump to userret in trampoline.S at the top of memory, which 
  // switches to the user page table, restores user registers,
  // and switches to user mode with sret.
  uint64 trampoline_userret = TRAMPOLINE + (userret - trampoline);
    800023d2:	00004717          	auipc	a4,0x4
    800023d6:	cca70713          	addi	a4,a4,-822 # 8000609c <userret>
    800023da:	8f11                	sub	a4,a4,a2
    800023dc:	97ba                	add	a5,a5,a4
  ((void (*)(uint64))trampoline_userret)(satp);
    800023de:	577d                	li	a4,-1
    800023e0:	177e                	slli	a4,a4,0x3f
    800023e2:	8d59                	or	a0,a0,a4
    800023e4:	9782                	jalr	a5
}
    800023e6:	60a2                	ld	ra,8(sp)
    800023e8:	6402                	ld	s0,0(sp)
    800023ea:	0141                	addi	sp,sp,16
    800023ec:	8082                	ret

00000000800023ee <clockintr>:
  w_sstatus(sstatus);
}

void
clockintr()
{
    800023ee:	1101                	addi	sp,sp,-32
    800023f0:	ec06                	sd	ra,24(sp)
    800023f2:	e822                	sd	s0,16(sp)
    800023f4:	e426                	sd	s1,8(sp)
    800023f6:	1000                	addi	s0,sp,32
  if(cpuid() == 0){
    800023f8:	c34ff0ef          	jal	ra,8000182c <cpuid>
    800023fc:	cd19                	beqz	a0,8000241a <clockintr+0x2c>
  asm volatile("csrr %0, time" : "=r" (x) );
    800023fe:	c01027f3          	rdtime	a5
  }

  // ask for the next timer interrupt. this also clears
  // the interrupt request. 1000000 is about a tenth
  // of a second.
  w_stimecmp(r_time() + 1000000);
    80002402:	000f4737          	lui	a4,0xf4
    80002406:	24070713          	addi	a4,a4,576 # f4240 <_entry-0x7ff0bdc0>
    8000240a:	97ba                	add	a5,a5,a4
  asm volatile("csrw 0x14d, %0" : : "r" (x));
    8000240c:	14d79073          	csrw	0x14d,a5
}
    80002410:	60e2                	ld	ra,24(sp)
    80002412:	6442                	ld	s0,16(sp)
    80002414:	64a2                	ld	s1,8(sp)
    80002416:	6105                	addi	sp,sp,32
    80002418:	8082                	ret
    acquire(&tickslock);
    8000241a:	0002b497          	auipc	s1,0x2b
    8000241e:	83648493          	addi	s1,s1,-1994 # 8002cc50 <tickslock>
    80002422:	8526                	mv	a0,s1
    80002424:	f76fe0ef          	jal	ra,80000b9a <acquire>
    ticks++;
    80002428:	00006517          	auipc	a0,0x6
    8000242c:	8c850513          	addi	a0,a0,-1848 # 80007cf0 <ticks>
    80002430:	411c                	lw	a5,0(a0)
    80002432:	2785                	addiw	a5,a5,1
    80002434:	c11c                	sw	a5,0(a0)
    wakeup(&ticks);
    80002436:	a3bff0ef          	jal	ra,80001e70 <wakeup>
    release(&tickslock);
    8000243a:	8526                	mv	a0,s1
    8000243c:	ff6fe0ef          	jal	ra,80000c32 <release>
    80002440:	bf7d                	j	800023fe <clockintr+0x10>

0000000080002442 <devintr>:
// returns 2 if timer interrupt,
// 1 if other device,
// 0 if not recognized.
int
devintr()
{
    80002442:	1101                	addi	sp,sp,-32
    80002444:	ec06                	sd	ra,24(sp)
    80002446:	e822                	sd	s0,16(sp)
    80002448:	e426                	sd	s1,8(sp)
    8000244a:	1000                	addi	s0,sp,32
  asm volatile("csrr %0, scause" : "=r" (x) );
    8000244c:	14202773          	csrr	a4,scause
  uint64 scause = r_scause();

  if(scause == 0x8000000000000009L){
    80002450:	57fd                	li	a5,-1
    80002452:	17fe                	slli	a5,a5,0x3f
    80002454:	07a5                	addi	a5,a5,9
    80002456:	00f70d63          	beq	a4,a5,80002470 <devintr+0x2e>
    // now allowed to interrupt again.
    if(irq)
      plic_complete(irq);

    return 1;
  } else if(scause == 0x8000000000000005L){
    8000245a:	57fd                	li	a5,-1
    8000245c:	17fe                	slli	a5,a5,0x3f
    8000245e:	0795                	addi	a5,a5,5
    // timer interrupt.
    clockintr();
    return 2;
  } else {
    return 0;
    80002460:	4501                	li	a0,0
  } else if(scause == 0x8000000000000005L){
    80002462:	04f70463          	beq	a4,a5,800024aa <devintr+0x68>
  }
}
    80002466:	60e2                	ld	ra,24(sp)
    80002468:	6442                	ld	s0,16(sp)
    8000246a:	64a2                	ld	s1,8(sp)
    8000246c:	6105                	addi	sp,sp,32
    8000246e:	8082                	ret
    int irq = plic_claim();
    80002470:	5a9020ef          	jal	ra,80005218 <plic_claim>
    80002474:	84aa                	mv	s1,a0
    if(irq == UART0_IRQ){
    80002476:	47a9                	li	a5,10
    80002478:	02f50363          	beq	a0,a5,8000249e <devintr+0x5c>
    } else if(irq == VIRTIO0_IRQ){
    8000247c:	4785                	li	a5,1
    8000247e:	02f50363          	beq	a0,a5,800024a4 <devintr+0x62>
    return 1;
    80002482:	4505                	li	a0,1
    } else if(irq){
    80002484:	d0ed                	beqz	s1,80002466 <devintr+0x24>
      printf("unexpected interrupt irq=%d\n", irq);
    80002486:	85a6                	mv	a1,s1
    80002488:	00005517          	auipc	a0,0x5
    8000248c:	ec850513          	addi	a0,a0,-312 # 80007350 <states.0+0x38>
    80002490:	812fe0ef          	jal	ra,800004a2 <printf>
      plic_complete(irq);
    80002494:	8526                	mv	a0,s1
    80002496:	5a3020ef          	jal	ra,80005238 <plic_complete>
    return 1;
    8000249a:	4505                	li	a0,1
    8000249c:	b7e9                	j	80002466 <devintr+0x24>
      uartintr();
    8000249e:	d10fe0ef          	jal	ra,800009ae <uartintr>
    800024a2:	bfcd                	j	80002494 <devintr+0x52>
      virtio_disk_intr();
    800024a4:	204030ef          	jal	ra,800056a8 <virtio_disk_intr>
    800024a8:	b7f5                	j	80002494 <devintr+0x52>
    clockintr();
    800024aa:	f45ff0ef          	jal	ra,800023ee <clockintr>
    return 2;
    800024ae:	4509                	li	a0,2
    800024b0:	bf5d                	j	80002466 <devintr+0x24>

00000000800024b2 <usertrap>:
{
    800024b2:	1101                	addi	sp,sp,-32
    800024b4:	ec06                	sd	ra,24(sp)
    800024b6:	e822                	sd	s0,16(sp)
    800024b8:	e426                	sd	s1,8(sp)
    800024ba:	e04a                	sd	s2,0(sp)
    800024bc:	1000                	addi	s0,sp,32
  asm volatile("csrr %0, sstatus" : "=r" (x) );
    800024be:	100027f3          	csrr	a5,sstatus
  if((r_sstatus() & SSTATUS_SPP) != 0)
    800024c2:	1007f793          	andi	a5,a5,256
    800024c6:	ef85                	bnez	a5,800024fe <usertrap+0x4c>
  asm volatile("csrw stvec, %0" : : "r" (x));
    800024c8:	00003797          	auipc	a5,0x3
    800024cc:	ca878793          	addi	a5,a5,-856 # 80005170 <kernelvec>
    800024d0:	10579073          	csrw	stvec,a5
  struct proc *p = myproc();
    800024d4:	b84ff0ef          	jal	ra,80001858 <myproc>
    800024d8:	84aa                	mv	s1,a0
  p->trapframe->epc = r_sepc();
    800024da:	6d3c                	ld	a5,88(a0)
  asm volatile("csrr %0, sepc" : "=r" (x) );
    800024dc:	14102773          	csrr	a4,sepc
    800024e0:	ef98                	sd	a4,24(a5)
  asm volatile("csrr %0, scause" : "=r" (x) );
    800024e2:	14202773          	csrr	a4,scause
  if(r_scause() == 8){
    800024e6:	47a1                	li	a5,8
    800024e8:	02f70163          	beq	a4,a5,8000250a <usertrap+0x58>
  } else if((which_dev = devintr()) != 0){
    800024ec:	f57ff0ef          	jal	ra,80002442 <devintr>
    800024f0:	892a                	mv	s2,a0
    800024f2:	c135                	beqz	a0,80002556 <usertrap+0xa4>
  if(killed(p))
    800024f4:	8526                	mv	a0,s1
    800024f6:	b67ff0ef          	jal	ra,8000205c <killed>
    800024fa:	cd1d                	beqz	a0,80002538 <usertrap+0x86>
    800024fc:	a81d                	j	80002532 <usertrap+0x80>
    panic("usertrap: not from user mode");
    800024fe:	00005517          	auipc	a0,0x5
    80002502:	e7250513          	addi	a0,a0,-398 # 80007370 <states.0+0x58>
    80002506:	a50fe0ef          	jal	ra,80000756 <panic>
    if(killed(p))
    8000250a:	b53ff0ef          	jal	ra,8000205c <killed>
    8000250e:	e121                	bnez	a0,8000254e <usertrap+0x9c>
    p->trapframe->epc += 4;
    80002510:	6cb8                	ld	a4,88(s1)
    80002512:	6f1c                	ld	a5,24(a4)
    80002514:	0791                	addi	a5,a5,4
    80002516:	ef1c                	sd	a5,24(a4)
  asm volatile("csrr %0, sstatus" : "=r" (x) );
    80002518:	100027f3          	csrr	a5,sstatus
  w_sstatus(r_sstatus() | SSTATUS_SIE);
    8000251c:	0027e793          	ori	a5,a5,2
  asm volatile("csrw sstatus, %0" : : "r" (x));
    80002520:	10079073          	csrw	sstatus,a5
    syscall();
    80002524:	248000ef          	jal	ra,8000276c <syscall>
  if(killed(p))
    80002528:	8526                	mv	a0,s1
    8000252a:	b33ff0ef          	jal	ra,8000205c <killed>
    8000252e:	c901                	beqz	a0,8000253e <usertrap+0x8c>
    80002530:	4901                	li	s2,0
    exit(-1);
    80002532:	557d                	li	a0,-1
    80002534:	9fdff0ef          	jal	ra,80001f30 <exit>
  if(which_dev == 2)
    80002538:	4789                	li	a5,2
    8000253a:	04f90563          	beq	s2,a5,80002584 <usertrap+0xd2>
  usertrapret();
    8000253e:	e1fff0ef          	jal	ra,8000235c <usertrapret>
}
    80002542:	60e2                	ld	ra,24(sp)
    80002544:	6442                	ld	s0,16(sp)
    80002546:	64a2                	ld	s1,8(sp)
    80002548:	6902                	ld	s2,0(sp)
    8000254a:	6105                	addi	sp,sp,32
    8000254c:	8082                	ret
      exit(-1);
    8000254e:	557d                	li	a0,-1
    80002550:	9e1ff0ef          	jal	ra,80001f30 <exit>
    80002554:	bf75                	j	80002510 <usertrap+0x5e>
  asm volatile("csrr %0, scause" : "=r" (x) );
    80002556:	142025f3          	csrr	a1,scause
    printf("usertrap(): unexpected scause 0x%lx pid=%d\n", r_scause(), p->pid);
    8000255a:	5890                	lw	a2,48(s1)
    8000255c:	00005517          	auipc	a0,0x5
    80002560:	e3450513          	addi	a0,a0,-460 # 80007390 <states.0+0x78>
    80002564:	f3ffd0ef          	jal	ra,800004a2 <printf>
  asm volatile("csrr %0, sepc" : "=r" (x) );
    80002568:	141025f3          	csrr	a1,sepc
  asm volatile("csrr %0, stval" : "=r" (x) );
    8000256c:	14302673          	csrr	a2,stval
    printf("            sepc=0x%lx stval=0x%lx\n", r_sepc(), r_stval());
    80002570:	00005517          	auipc	a0,0x5
    80002574:	e5050513          	addi	a0,a0,-432 # 800073c0 <states.0+0xa8>
    80002578:	f2bfd0ef          	jal	ra,800004a2 <printf>
    setkilled(p);
    8000257c:	8526                	mv	a0,s1
    8000257e:	abbff0ef          	jal	ra,80002038 <setkilled>
    80002582:	b75d                	j	80002528 <usertrap+0x76>
    yield();
    80002584:	875ff0ef          	jal	ra,80001df8 <yield>
    80002588:	bf5d                	j	8000253e <usertrap+0x8c>

000000008000258a <kerneltrap>:
{
    8000258a:	7179                	addi	sp,sp,-48
    8000258c:	f406                	sd	ra,40(sp)
    8000258e:	f022                	sd	s0,32(sp)
    80002590:	ec26                	sd	s1,24(sp)
    80002592:	e84a                	sd	s2,16(sp)
    80002594:	e44e                	sd	s3,8(sp)
    80002596:	1800                	addi	s0,sp,48
  asm volatile("csrr %0, sepc" : "=r" (x) );
    80002598:	14102973          	csrr	s2,sepc
  asm volatile("csrr %0, sstatus" : "=r" (x) );
    8000259c:	100024f3          	csrr	s1,sstatus
  asm volatile("csrr %0, scause" : "=r" (x) );
    800025a0:	142029f3          	csrr	s3,scause
  if((sstatus & SSTATUS_SPP) == 0)
    800025a4:	1004f793          	andi	a5,s1,256
    800025a8:	c795                	beqz	a5,800025d4 <kerneltrap+0x4a>
  asm volatile("csrr %0, sstatus" : "=r" (x) );
    800025aa:	100027f3          	csrr	a5,sstatus
  return (x & SSTATUS_SIE) != 0;
    800025ae:	8b89                	andi	a5,a5,2
  if(intr_get() != 0)
    800025b0:	eb85                	bnez	a5,800025e0 <kerneltrap+0x56>
  if((which_dev = devintr()) == 0){
    800025b2:	e91ff0ef          	jal	ra,80002442 <devintr>
    800025b6:	c91d                	beqz	a0,800025ec <kerneltrap+0x62>
  if(which_dev == 2 && myproc() != 0)
    800025b8:	4789                	li	a5,2
    800025ba:	04f50a63          	beq	a0,a5,8000260e <kerneltrap+0x84>
  asm volatile("csrw sepc, %0" : : "r" (x));
    800025be:	14191073          	csrw	sepc,s2
  asm volatile("csrw sstatus, %0" : : "r" (x));
    800025c2:	10049073          	csrw	sstatus,s1
}
    800025c6:	70a2                	ld	ra,40(sp)
    800025c8:	7402                	ld	s0,32(sp)
    800025ca:	64e2                	ld	s1,24(sp)
    800025cc:	6942                	ld	s2,16(sp)
    800025ce:	69a2                	ld	s3,8(sp)
    800025d0:	6145                	addi	sp,sp,48
    800025d2:	8082                	ret
    panic("kerneltrap: not from supervisor mode");
    800025d4:	00005517          	auipc	a0,0x5
    800025d8:	e1450513          	addi	a0,a0,-492 # 800073e8 <states.0+0xd0>
    800025dc:	97afe0ef          	jal	ra,80000756 <panic>
    panic("kerneltrap: interrupts enabled");
    800025e0:	00005517          	auipc	a0,0x5
    800025e4:	e3050513          	addi	a0,a0,-464 # 80007410 <states.0+0xf8>
    800025e8:	96efe0ef          	jal	ra,80000756 <panic>
  asm volatile("csrr %0, sepc" : "=r" (x) );
    800025ec:	14102673          	csrr	a2,sepc
  asm volatile("csrr %0, stval" : "=r" (x) );
    800025f0:	143026f3          	csrr	a3,stval
    printf("scause=0x%lx sepc=0x%lx stval=0x%lx\n", scause, r_sepc(), r_stval());
    800025f4:	85ce                	mv	a1,s3
    800025f6:	00005517          	auipc	a0,0x5
    800025fa:	e3a50513          	addi	a0,a0,-454 # 80007430 <states.0+0x118>
    800025fe:	ea5fd0ef          	jal	ra,800004a2 <printf>
    panic("kerneltrap");
    80002602:	00005517          	auipc	a0,0x5
    80002606:	e5650513          	addi	a0,a0,-426 # 80007458 <states.0+0x140>
    8000260a:	94cfe0ef          	jal	ra,80000756 <panic>
  if(which_dev == 2 && myproc() != 0)
    8000260e:	a4aff0ef          	jal	ra,80001858 <myproc>
    80002612:	d555                	beqz	a0,800025be <kerneltrap+0x34>
    yield();
    80002614:	fe4ff0ef          	jal	ra,80001df8 <yield>
    80002618:	b75d                	j	800025be <kerneltrap+0x34>

000000008000261a <argraw>:
  return strlen(buf);
}

static uint64
argraw(int n)
{
    8000261a:	1101                	addi	sp,sp,-32
    8000261c:	ec06                	sd	ra,24(sp)
    8000261e:	e822                	sd	s0,16(sp)
    80002620:	e426                	sd	s1,8(sp)
    80002622:	1000                	addi	s0,sp,32
    80002624:	84aa                	mv	s1,a0
  struct proc *p = myproc();
    80002626:	a32ff0ef          	jal	ra,80001858 <myproc>
  switch (n) {
    8000262a:	4795                	li	a5,5
    8000262c:	0497e163          	bltu	a5,s1,8000266e <argraw+0x54>
    80002630:	048a                	slli	s1,s1,0x2
    80002632:	00005717          	auipc	a4,0x5
    80002636:	e5e70713          	addi	a4,a4,-418 # 80007490 <states.0+0x178>
    8000263a:	94ba                	add	s1,s1,a4
    8000263c:	409c                	lw	a5,0(s1)
    8000263e:	97ba                	add	a5,a5,a4
    80002640:	8782                	jr	a5
  case 0:
    return p->trapframe->a0;
    80002642:	6d3c                	ld	a5,88(a0)
    80002644:	7ba8                	ld	a0,112(a5)
  case 5:
    return p->trapframe->a5;
  }
  panic("argraw");
  return -1;
}
    80002646:	60e2                	ld	ra,24(sp)
    80002648:	6442                	ld	s0,16(sp)
    8000264a:	64a2                	ld	s1,8(sp)
    8000264c:	6105                	addi	sp,sp,32
    8000264e:	8082                	ret
    return p->trapframe->a1;
    80002650:	6d3c                	ld	a5,88(a0)
    80002652:	7fa8                	ld	a0,120(a5)
    80002654:	bfcd                	j	80002646 <argraw+0x2c>
    return p->trapframe->a2;
    80002656:	6d3c                	ld	a5,88(a0)
    80002658:	63c8                	ld	a0,128(a5)
    8000265a:	b7f5                	j	80002646 <argraw+0x2c>
    return p->trapframe->a3;
    8000265c:	6d3c                	ld	a5,88(a0)
    8000265e:	67c8                	ld	a0,136(a5)
    80002660:	b7dd                	j	80002646 <argraw+0x2c>
    return p->trapframe->a4;
    80002662:	6d3c                	ld	a5,88(a0)
    80002664:	6bc8                	ld	a0,144(a5)
    80002666:	b7c5                	j	80002646 <argraw+0x2c>
    return p->trapframe->a5;
    80002668:	6d3c                	ld	a5,88(a0)
    8000266a:	6fc8                	ld	a0,152(a5)
    8000266c:	bfe9                	j	80002646 <argraw+0x2c>
  panic("argraw");
    8000266e:	00005517          	auipc	a0,0x5
    80002672:	dfa50513          	addi	a0,a0,-518 # 80007468 <states.0+0x150>
    80002676:	8e0fe0ef          	jal	ra,80000756 <panic>

000000008000267a <fetchaddr>:
{
    8000267a:	1101                	addi	sp,sp,-32
    8000267c:	ec06                	sd	ra,24(sp)
    8000267e:	e822                	sd	s0,16(sp)
    80002680:	e426                	sd	s1,8(sp)
    80002682:	e04a                	sd	s2,0(sp)
    80002684:	1000                	addi	s0,sp,32
    80002686:	84aa                	mv	s1,a0
    80002688:	892e                	mv	s2,a1
  struct proc *p = myproc();
    8000268a:	9ceff0ef          	jal	ra,80001858 <myproc>
  if(addr >= p->sz || addr+sizeof(uint64) > p->sz) // both tests needed, in case of overflow
    8000268e:	653c                	ld	a5,72(a0)
    80002690:	02f4f663          	bgeu	s1,a5,800026bc <fetchaddr+0x42>
    80002694:	00848713          	addi	a4,s1,8
    80002698:	02e7e463          	bltu	a5,a4,800026c0 <fetchaddr+0x46>
  if(copyin(p->pagetable, (char *)ip, addr, sizeof(*ip)) != 0)
    8000269c:	46a1                	li	a3,8
    8000269e:	8626                	mv	a2,s1
    800026a0:	85ca                	mv	a1,s2
    800026a2:	6928                	ld	a0,80(a0)
    800026a4:	f21fe0ef          	jal	ra,800015c4 <copyin>
    800026a8:	00a03533          	snez	a0,a0
    800026ac:	40a00533          	neg	a0,a0
}
    800026b0:	60e2                	ld	ra,24(sp)
    800026b2:	6442                	ld	s0,16(sp)
    800026b4:	64a2                	ld	s1,8(sp)
    800026b6:	6902                	ld	s2,0(sp)
    800026b8:	6105                	addi	sp,sp,32
    800026ba:	8082                	ret
    return -1;
    800026bc:	557d                	li	a0,-1
    800026be:	bfcd                	j	800026b0 <fetchaddr+0x36>
    800026c0:	557d                	li	a0,-1
    800026c2:	b7fd                	j	800026b0 <fetchaddr+0x36>

00000000800026c4 <fetchstr>:
{
    800026c4:	7179                	addi	sp,sp,-48
    800026c6:	f406                	sd	ra,40(sp)
    800026c8:	f022                	sd	s0,32(sp)
    800026ca:	ec26                	sd	s1,24(sp)
    800026cc:	e84a                	sd	s2,16(sp)
    800026ce:	e44e                	sd	s3,8(sp)
    800026d0:	1800                	addi	s0,sp,48
    800026d2:	892a                	mv	s2,a0
    800026d4:	84ae                	mv	s1,a1
    800026d6:	89b2                	mv	s3,a2
  struct proc *p = myproc();
    800026d8:	980ff0ef          	jal	ra,80001858 <myproc>
  if(copyinstr(p->pagetable, buf, addr, max) < 0)
    800026dc:	86ce                	mv	a3,s3
    800026de:	864a                	mv	a2,s2
    800026e0:	85a6                	mv	a1,s1
    800026e2:	6928                	ld	a0,80(a0)
    800026e4:	f67fe0ef          	jal	ra,8000164a <copyinstr>
    800026e8:	00054c63          	bltz	a0,80002700 <fetchstr+0x3c>
  return strlen(buf);
    800026ec:	8526                	mv	a0,s1
    800026ee:	ef8fe0ef          	jal	ra,80000de6 <strlen>
}
    800026f2:	70a2                	ld	ra,40(sp)
    800026f4:	7402                	ld	s0,32(sp)
    800026f6:	64e2                	ld	s1,24(sp)
    800026f8:	6942                	ld	s2,16(sp)
    800026fa:	69a2                	ld	s3,8(sp)
    800026fc:	6145                	addi	sp,sp,48
    800026fe:	8082                	ret
    return -1;
    80002700:	557d                	li	a0,-1
    80002702:	bfc5                	j	800026f2 <fetchstr+0x2e>

0000000080002704 <argint>:

// Fetch the nth 32-bit system call argument.
void
argint(int n, int *ip)
{
    80002704:	1101                	addi	sp,sp,-32
    80002706:	ec06                	sd	ra,24(sp)
    80002708:	e822                	sd	s0,16(sp)
    8000270a:	e426                	sd	s1,8(sp)
    8000270c:	1000                	addi	s0,sp,32
    8000270e:	84ae                	mv	s1,a1
  *ip = argraw(n);
    80002710:	f0bff0ef          	jal	ra,8000261a <argraw>
    80002714:	c088                	sw	a0,0(s1)
}
    80002716:	60e2                	ld	ra,24(sp)
    80002718:	6442                	ld	s0,16(sp)
    8000271a:	64a2                	ld	s1,8(sp)
    8000271c:	6105                	addi	sp,sp,32
    8000271e:	8082                	ret

0000000080002720 <argaddr>:
// Retrieve an argument as a pointer.
// Doesn't check for legality, since
// copyin/copyout will do that.
void
argaddr(int n, uint64 *ip)
{
    80002720:	1101                	addi	sp,sp,-32
    80002722:	ec06                	sd	ra,24(sp)
    80002724:	e822                	sd	s0,16(sp)
    80002726:	e426                	sd	s1,8(sp)
    80002728:	1000                	addi	s0,sp,32
    8000272a:	84ae                	mv	s1,a1
  *ip = argraw(n);
    8000272c:	eefff0ef          	jal	ra,8000261a <argraw>
    80002730:	e088                	sd	a0,0(s1)
}
    80002732:	60e2                	ld	ra,24(sp)
    80002734:	6442                	ld	s0,16(sp)
    80002736:	64a2                	ld	s1,8(sp)
    80002738:	6105                	addi	sp,sp,32
    8000273a:	8082                	ret

000000008000273c <argstr>:
// Fetch the nth word-sized system call argument as a null-terminated string.
// Copies into buf, at most max.
// Returns string length if OK (including nul), -1 if error.
int
argstr(int n, char *buf, int max)
{
    8000273c:	7179                	addi	sp,sp,-48
    8000273e:	f406                	sd	ra,40(sp)
    80002740:	f022                	sd	s0,32(sp)
    80002742:	ec26                	sd	s1,24(sp)
    80002744:	e84a                	sd	s2,16(sp)
    80002746:	1800                	addi	s0,sp,48
    80002748:	84ae                	mv	s1,a1
    8000274a:	8932                	mv	s2,a2
  uint64 addr;
  argaddr(n, &addr);
    8000274c:	fd840593          	addi	a1,s0,-40
    80002750:	fd1ff0ef          	jal	ra,80002720 <argaddr>
  return fetchstr(addr, buf, max);
    80002754:	864a                	mv	a2,s2
    80002756:	85a6                	mv	a1,s1
    80002758:	fd843503          	ld	a0,-40(s0)
    8000275c:	f69ff0ef          	jal	ra,800026c4 <fetchstr>
}
    80002760:	70a2                	ld	ra,40(sp)
    80002762:	7402                	ld	s0,32(sp)
    80002764:	64e2                	ld	s1,24(sp)
    80002766:	6942                	ld	s2,16(sp)
    80002768:	6145                	addi	sp,sp,48
    8000276a:	8082                	ret

000000008000276c <syscall>:
[SYS_printfslab] sys_printfslab
};

void
syscall(void)
{
    8000276c:	1101                	addi	sp,sp,-32
    8000276e:	ec06                	sd	ra,24(sp)
    80002770:	e822                	sd	s0,16(sp)
    80002772:	e426                	sd	s1,8(sp)
    80002774:	e04a                	sd	s2,0(sp)
    80002776:	1000                	addi	s0,sp,32
  int num;
  struct proc *p = myproc();
    80002778:	8e0ff0ef          	jal	ra,80001858 <myproc>
    8000277c:	84aa                	mv	s1,a0

  num = p->trapframe->a7;
    8000277e:	05853903          	ld	s2,88(a0)
    80002782:	0a893783          	ld	a5,168(s2)
    80002786:	0007869b          	sext.w	a3,a5
  if(num > 0 && num < NELEM(syscalls) && syscalls[num]) {
    8000278a:	37fd                	addiw	a5,a5,-1
    8000278c:	4759                	li	a4,22
    8000278e:	00f76f63          	bltu	a4,a5,800027ac <syscall+0x40>
    80002792:	00369713          	slli	a4,a3,0x3
    80002796:	00005797          	auipc	a5,0x5
    8000279a:	d1278793          	addi	a5,a5,-750 # 800074a8 <syscalls>
    8000279e:	97ba                	add	a5,a5,a4
    800027a0:	639c                	ld	a5,0(a5)
    800027a2:	c789                	beqz	a5,800027ac <syscall+0x40>
    // Use num to lookup the system call function for num, call it,
    // and store its return value in p->trapframe->a0
    p->trapframe->a0 = syscalls[num]();
    800027a4:	9782                	jalr	a5
    800027a6:	06a93823          	sd	a0,112(s2)
    800027aa:	a829                	j	800027c4 <syscall+0x58>
  } else {
    printf("%d %s: unknown sys call %d\n",
    800027ac:	71848613          	addi	a2,s1,1816
    800027b0:	588c                	lw	a1,48(s1)
    800027b2:	00005517          	auipc	a0,0x5
    800027b6:	cbe50513          	addi	a0,a0,-834 # 80007470 <states.0+0x158>
    800027ba:	ce9fd0ef          	jal	ra,800004a2 <printf>
            p->pid, p->name, num);
    p->trapframe->a0 = -1;
    800027be:	6cbc                	ld	a5,88(s1)
    800027c0:	577d                	li	a4,-1
    800027c2:	fbb8                	sd	a4,112(a5)
  }
}
    800027c4:	60e2                	ld	ra,24(sp)
    800027c6:	6442                	ld	s0,16(sp)
    800027c8:	64a2                	ld	s1,8(sp)
    800027ca:	6902                	ld	s2,0(sp)
    800027cc:	6105                	addi	sp,sp,32
    800027ce:	8082                	ret

00000000800027d0 <sys_exit>:
#include "spinlock.h"
#include "proc.h"

uint64
sys_exit(void)
{
    800027d0:	1101                	addi	sp,sp,-32
    800027d2:	ec06                	sd	ra,24(sp)
    800027d4:	e822                	sd	s0,16(sp)
    800027d6:	1000                	addi	s0,sp,32
  int n;
  argint(0, &n);
    800027d8:	fec40593          	addi	a1,s0,-20
    800027dc:	4501                	li	a0,0
    800027de:	f27ff0ef          	jal	ra,80002704 <argint>
  exit(n);
    800027e2:	fec42503          	lw	a0,-20(s0)
    800027e6:	f4aff0ef          	jal	ra,80001f30 <exit>
  return 0;  // not reached
}
    800027ea:	4501                	li	a0,0
    800027ec:	60e2                	ld	ra,24(sp)
    800027ee:	6442                	ld	s0,16(sp)
    800027f0:	6105                	addi	sp,sp,32
    800027f2:	8082                	ret

00000000800027f4 <sys_getpid>:

uint64
sys_getpid(void)
{
    800027f4:	1141                	addi	sp,sp,-16
    800027f6:	e406                	sd	ra,8(sp)
    800027f8:	e022                	sd	s0,0(sp)
    800027fa:	0800                	addi	s0,sp,16
  return myproc()->pid;
    800027fc:	85cff0ef          	jal	ra,80001858 <myproc>
}
    80002800:	5908                	lw	a0,48(a0)
    80002802:	60a2                	ld	ra,8(sp)
    80002804:	6402                	ld	s0,0(sp)
    80002806:	0141                	addi	sp,sp,16
    80002808:	8082                	ret

000000008000280a <sys_fork>:

uint64
sys_fork(void)
{
    8000280a:	1141                	addi	sp,sp,-16
    8000280c:	e406                	sd	ra,8(sp)
    8000280e:	e022                	sd	s0,0(sp)
    80002810:	0800                	addi	s0,sp,16
  return fork();
    80002812:	b6cff0ef          	jal	ra,80001b7e <fork>
}
    80002816:	60a2                	ld	ra,8(sp)
    80002818:	6402                	ld	s0,0(sp)
    8000281a:	0141                	addi	sp,sp,16
    8000281c:	8082                	ret

000000008000281e <sys_wait>:

uint64
sys_wait(void)
{
    8000281e:	1101                	addi	sp,sp,-32
    80002820:	ec06                	sd	ra,24(sp)
    80002822:	e822                	sd	s0,16(sp)
    80002824:	1000                	addi	s0,sp,32
  uint64 p;
  argaddr(0, &p);
    80002826:	fe840593          	addi	a1,s0,-24
    8000282a:	4501                	li	a0,0
    8000282c:	ef5ff0ef          	jal	ra,80002720 <argaddr>
  return wait(p);
    80002830:	fe843503          	ld	a0,-24(s0)
    80002834:	853ff0ef          	jal	ra,80002086 <wait>
}
    80002838:	60e2                	ld	ra,24(sp)
    8000283a:	6442                	ld	s0,16(sp)
    8000283c:	6105                	addi	sp,sp,32
    8000283e:	8082                	ret

0000000080002840 <sys_sbrk>:

uint64
sys_sbrk(void)
{
    80002840:	7179                	addi	sp,sp,-48
    80002842:	f406                	sd	ra,40(sp)
    80002844:	f022                	sd	s0,32(sp)
    80002846:	ec26                	sd	s1,24(sp)
    80002848:	1800                	addi	s0,sp,48
  uint64 addr;
  int n;

  argint(0, &n);
    8000284a:	fdc40593          	addi	a1,s0,-36
    8000284e:	4501                	li	a0,0
    80002850:	eb5ff0ef          	jal	ra,80002704 <argint>
  addr = myproc()->sz;
    80002854:	804ff0ef          	jal	ra,80001858 <myproc>
    80002858:	6524                	ld	s1,72(a0)
  if(growproc(n) < 0)
    8000285a:	fdc42503          	lw	a0,-36(s0)
    8000285e:	ad0ff0ef          	jal	ra,80001b2e <growproc>
    80002862:	00054863          	bltz	a0,80002872 <sys_sbrk+0x32>
    return -1;
  return addr;
}
    80002866:	8526                	mv	a0,s1
    80002868:	70a2                	ld	ra,40(sp)
    8000286a:	7402                	ld	s0,32(sp)
    8000286c:	64e2                	ld	s1,24(sp)
    8000286e:	6145                	addi	sp,sp,48
    80002870:	8082                	ret
    return -1;
    80002872:	54fd                	li	s1,-1
    80002874:	bfcd                	j	80002866 <sys_sbrk+0x26>

0000000080002876 <sys_sleep>:

uint64
sys_sleep(void)
{
    80002876:	7139                	addi	sp,sp,-64
    80002878:	fc06                	sd	ra,56(sp)
    8000287a:	f822                	sd	s0,48(sp)
    8000287c:	f426                	sd	s1,40(sp)
    8000287e:	f04a                	sd	s2,32(sp)
    80002880:	ec4e                	sd	s3,24(sp)
    80002882:	0080                	addi	s0,sp,64
  int n;
  uint ticks0;

  argint(0, &n);
    80002884:	fcc40593          	addi	a1,s0,-52
    80002888:	4501                	li	a0,0
    8000288a:	e7bff0ef          	jal	ra,80002704 <argint>
  if(n < 0)
    8000288e:	fcc42783          	lw	a5,-52(s0)
    80002892:	0607c563          	bltz	a5,800028fc <sys_sleep+0x86>
    n = 0;
  acquire(&tickslock);
    80002896:	0002a517          	auipc	a0,0x2a
    8000289a:	3ba50513          	addi	a0,a0,954 # 8002cc50 <tickslock>
    8000289e:	afcfe0ef          	jal	ra,80000b9a <acquire>
  ticks0 = ticks;
    800028a2:	00005917          	auipc	s2,0x5
    800028a6:	44e92903          	lw	s2,1102(s2) # 80007cf0 <ticks>
  while(ticks - ticks0 < n){
    800028aa:	fcc42783          	lw	a5,-52(s0)
    800028ae:	cb8d                	beqz	a5,800028e0 <sys_sleep+0x6a>
    if(killed(myproc())){
      release(&tickslock);
      return -1;
    }
    sleep(&ticks, &tickslock);
    800028b0:	0002a997          	auipc	s3,0x2a
    800028b4:	3a098993          	addi	s3,s3,928 # 8002cc50 <tickslock>
    800028b8:	00005497          	auipc	s1,0x5
    800028bc:	43848493          	addi	s1,s1,1080 # 80007cf0 <ticks>
    if(killed(myproc())){
    800028c0:	f99fe0ef          	jal	ra,80001858 <myproc>
    800028c4:	f98ff0ef          	jal	ra,8000205c <killed>
    800028c8:	ed0d                	bnez	a0,80002902 <sys_sleep+0x8c>
    sleep(&ticks, &tickslock);
    800028ca:	85ce                	mv	a1,s3
    800028cc:	8526                	mv	a0,s1
    800028ce:	d56ff0ef          	jal	ra,80001e24 <sleep>
  while(ticks - ticks0 < n){
    800028d2:	409c                	lw	a5,0(s1)
    800028d4:	412787bb          	subw	a5,a5,s2
    800028d8:	fcc42703          	lw	a4,-52(s0)
    800028dc:	fee7e2e3          	bltu	a5,a4,800028c0 <sys_sleep+0x4a>
  }
  release(&tickslock);
    800028e0:	0002a517          	auipc	a0,0x2a
    800028e4:	37050513          	addi	a0,a0,880 # 8002cc50 <tickslock>
    800028e8:	b4afe0ef          	jal	ra,80000c32 <release>
  return 0;
    800028ec:	4501                	li	a0,0
}
    800028ee:	70e2                	ld	ra,56(sp)
    800028f0:	7442                	ld	s0,48(sp)
    800028f2:	74a2                	ld	s1,40(sp)
    800028f4:	7902                	ld	s2,32(sp)
    800028f6:	69e2                	ld	s3,24(sp)
    800028f8:	6121                	addi	sp,sp,64
    800028fa:	8082                	ret
    n = 0;
    800028fc:	fc042623          	sw	zero,-52(s0)
    80002900:	bf59                	j	80002896 <sys_sleep+0x20>
      release(&tickslock);
    80002902:	0002a517          	auipc	a0,0x2a
    80002906:	34e50513          	addi	a0,a0,846 # 8002cc50 <tickslock>
    8000290a:	b28fe0ef          	jal	ra,80000c32 <release>
      return -1;
    8000290e:	557d                	li	a0,-1
    80002910:	bff9                	j	800028ee <sys_sleep+0x78>

0000000080002912 <sys_kill>:

uint64
sys_kill(void)
{
    80002912:	1101                	addi	sp,sp,-32
    80002914:	ec06                	sd	ra,24(sp)
    80002916:	e822                	sd	s0,16(sp)
    80002918:	1000                	addi	s0,sp,32
  int pid;

  argint(0, &pid);
    8000291a:	fec40593          	addi	a1,s0,-20
    8000291e:	4501                	li	a0,0
    80002920:	de5ff0ef          	jal	ra,80002704 <argint>
  return kill(pid);
    80002924:	fec42503          	lw	a0,-20(s0)
    80002928:	eaaff0ef          	jal	ra,80001fd2 <kill>
}
    8000292c:	60e2                	ld	ra,24(sp)
    8000292e:	6442                	ld	s0,16(sp)
    80002930:	6105                	addi	sp,sp,32
    80002932:	8082                	ret

0000000080002934 <sys_uptime>:

// return how many clock tick interrupts have occurred
// since start.
uint64
sys_uptime(void)
{
    80002934:	1101                	addi	sp,sp,-32
    80002936:	ec06                	sd	ra,24(sp)
    80002938:	e822                	sd	s0,16(sp)
    8000293a:	e426                	sd	s1,8(sp)
    8000293c:	1000                	addi	s0,sp,32
  uint xticks;

  acquire(&tickslock);
    8000293e:	0002a517          	auipc	a0,0x2a
    80002942:	31250513          	addi	a0,a0,786 # 8002cc50 <tickslock>
    80002946:	a54fe0ef          	jal	ra,80000b9a <acquire>
  xticks = ticks;
    8000294a:	00005497          	auipc	s1,0x5
    8000294e:	3a64a483          	lw	s1,934(s1) # 80007cf0 <ticks>
  release(&tickslock);
    80002952:	0002a517          	auipc	a0,0x2a
    80002956:	2fe50513          	addi	a0,a0,766 # 8002cc50 <tickslock>
    8000295a:	ad8fe0ef          	jal	ra,80000c32 <release>
  return xticks;
}
    8000295e:	02049513          	slli	a0,s1,0x20
    80002962:	9101                	srli	a0,a0,0x20
    80002964:	60e2                	ld	ra,24(sp)
    80002966:	6442                	ld	s0,16(sp)
    80002968:	64a2                	ld	s1,8(sp)
    8000296a:	6105                	addi	sp,sp,32
    8000296c:	8082                	ret

000000008000296e <binit>:
  struct buf head;
} bcache;

void
binit(void)
{
    8000296e:	7179                	addi	sp,sp,-48
    80002970:	f406                	sd	ra,40(sp)
    80002972:	f022                	sd	s0,32(sp)
    80002974:	ec26                	sd	s1,24(sp)
    80002976:	e84a                	sd	s2,16(sp)
    80002978:	e44e                	sd	s3,8(sp)
    8000297a:	e052                	sd	s4,0(sp)
    8000297c:	1800                	addi	s0,sp,48
  struct buf *b;

  initlock(&bcache.lock, "bcache");
    8000297e:	00005597          	auipc	a1,0x5
    80002982:	bea58593          	addi	a1,a1,-1046 # 80007568 <syscalls+0xc0>
    80002986:	0002a517          	auipc	a0,0x2a
    8000298a:	2e250513          	addi	a0,a0,738 # 8002cc68 <bcache>
    8000298e:	98cfe0ef          	jal	ra,80000b1a <initlock>

  // Create linked list of buffers
  bcache.head.prev = &bcache.head;
    80002992:	00032797          	auipc	a5,0x32
    80002996:	2d678793          	addi	a5,a5,726 # 80034c68 <bcache+0x8000>
    8000299a:	00032717          	auipc	a4,0x32
    8000299e:	53670713          	addi	a4,a4,1334 # 80034ed0 <bcache+0x8268>
    800029a2:	2ae7b823          	sd	a4,688(a5)
  bcache.head.next = &bcache.head;
    800029a6:	2ae7bc23          	sd	a4,696(a5)
  for(b = bcache.buf; b < bcache.buf+NBUF; b++){
    800029aa:	0002a497          	auipc	s1,0x2a
    800029ae:	2d648493          	addi	s1,s1,726 # 8002cc80 <bcache+0x18>
    b->next = bcache.head.next;
    800029b2:	893e                	mv	s2,a5
    b->prev = &bcache.head;
    800029b4:	89ba                	mv	s3,a4
    initsleeplock(&b->lock, "buffer");
    800029b6:	00005a17          	auipc	s4,0x5
    800029ba:	bbaa0a13          	addi	s4,s4,-1094 # 80007570 <syscalls+0xc8>
    b->next = bcache.head.next;
    800029be:	2b893783          	ld	a5,696(s2)
